081109 203747 238 INFO dfs.DataNode$DataXceiver: Receiving block blk_7268649045879732129 src: /10.251.39.192:52765 dest: /10.251.39.192:50010
081109 203747 28 INFO dfs.FSNamesystem: BLOCK* NameSystem.allocateBlock: /user/root/rand/_temporary/_task_200811092030_0001_m_000161_0/part-00161. blk_7268649045879732129
081109 203748 240 INFO dfs.DataNode$DataXceiver: Receiving block blk_7268649045879732129 src: /10.251.39.192:40208 dest: /10.251.39.192:50010
081109 203749 245 INFO dfs.DataNode$DataXceiver: Receiving block blk_7268649045879732129 src: /10.251.109.236:41561 dest: /10.251.109.236:50010
081109 203846 244 INFO dfs.DataNode$PacketResponder: PacketResponder 1 for block blk_7268649045879732129 terminating
081109 203846 244 INFO dfs.DataNode$PacketResponder: Received block blk_7268649045879732129 of size 67108864 from /10.251.39.192
081109 203846 246 INFO dfs.DataNode$PacketResponder: PacketResponder 0 for block blk_7268649045879732129 terminating
081109 203846 246 INFO dfs.DataNode$PacketResponder: Received block blk_7268649045879732129 of size 67108864 from /10.251.109.236
081109 203847 240 INFO dfs.DataNode$PacketResponder: PacketResponder 2 for block blk_7268649045879732129 terminating
081109 203847 240 INFO dfs.DataNode$PacketResponder: Received block blk_7268649045879732129 of size 67108864 from /10.251.39.192
081109 203847 26 INFO dfs.FSNamesystem: BLOCK* NameSystem.addStoredBlock: blockMap updated: 10.251.66.192:50010 is added to blk_7268649045879732129 size 67108864
081109 203847 29 INFO dfs.FSNamesystem: BLOCK* NameSystem.addStoredBlock: blockMap updated: 10.251.39.192:50010 is added to blk_7268649045879732129 size 67108864
081109 203847 34 INFO dfs.FSNamesystem: BLOCK* NameSystem.addStoredBlock: blockMap updated: 10.251.109.236:50010 is added to blk_7268649045879732129 size 67108864
081109 204317 13 INFO dfs.DataBlockScanner: Verification succeeded for blk_7268649045879732129
081109 204637 30 INFO dfs.FSNamesystem: BLOCK* NameSystem.allocateBlock: /user/root/rand/_temporary/_task_200811092030_0001_m_000547_0/part-00547. blk_3844581002541250978
081109 204637 566 INFO dfs.DataNode$DataXceiver: Receiving block blk_3844581002541250978 src: /10.251.125.237:52833 dest: /10.251.125.237:50010
081109 204637 598 INFO dfs.DataNode$DataXceiver: Receiving block blk_3844581002541250978 src: /10.251.125.237:45074 dest: /10.251.125.237:50010
081109 204638 573 INFO dfs.DataNode$DataXceiver: Receiving block blk_3844581002541250978 src: /10.251.126.83:41375 dest: /10.251.126.83:50010
081109 204712 32 INFO dfs.FSNamesystem: BLOCK* NameSystem.allocateBlock: /user/root/rand/_temporary/_task_200811092030_0001_m_000645_0/part-00645. blk_-5657847586075035586
081109 204712 580 INFO dfs.DataNode$DataXceiver: Receiving block blk_-5657847586075035586 src: /10.251.122.79:52569 dest: /10.251.122.79:50010
081109 204712 588 INFO dfs.DataNode$DataXceiver: Receiving block blk_-5657847586075035586 src: /10.251.73.188:59454 dest: /10.251.73.188:50010
081109 204712 599 INFO dfs.DataNode$DataXceiver: Receiving block blk_-5657847586075035586 src: /10.251.73.188:36666 dest: /10.251.73.188:50010
081109 204720 29 INFO dfs.FSNamesystem: BLOCK* NameSystem.addStoredBlock: blockMap updated: 10.251.125.237:50010 is added to blk_3844581002541250978 size 67108864
081109 204720 31 INFO dfs.FSNamesystem: BLOCK* NameSystem.addStoredBlock: blockMap updated: 10.251.126.83:50010 is added to blk_3844581002541250978 size 67108864
081109 204720 34 INFO dfs.FSNamesystem: BLOCK* NameSystem.addStoredBlock: blockMap updated: 10.251.90.64:50010 is added to blk_3844581002541250978 size 67108864
081109 204720 569 INFO dfs.DataNode$PacketResponder: PacketResponder 2 for block blk_3844581002541250978 terminating
081109 204720 569 INFO dfs.DataNode$PacketResponder: Received block blk_3844581002541250978 of size 67108864 from /10.251.125.237
081109 204720 574 INFO dfs.DataNode$PacketResponder: PacketResponder 0 for block blk_3844581002541250978 terminating
081109 204720 574 INFO dfs.DataNode$PacketResponder: Received block blk_3844581002541250978 of size 67108864 from /10.251.126.83
081109 204720 599 INFO dfs.DataNode$PacketResponder: PacketResponder 1 for block blk_3844581002541250978 terminating
081109 204720 599 INFO dfs.DataNode$PacketResponder: Received block blk_3844581002541250978 of size 67108864 from /10.251.125.237
081109 204735 35 INFO dfs.FSNamesystem: BLOCK* NameSystem.allocateBlock: /user/root/rand/_temporary/_task_200811092030_0001_m_000120_0/part-00120. blk_4114836081645547113
081109 204736 593 INFO dfs.DataNode$DataXceiver: Receiving block blk_4114836081645547113 src: /10.251.30.85:33215 dest: /10.251.30.85:50010
081109 204736 600 INFO dfs.DataNode$DataXceiver: Receiving block blk_4114836081645547113 src: /10.251.30.85:34840 dest: /10.251.30.85:50010
081109 204736 613 INFO dfs.DataNode$DataXceiver: Receiving block blk_4114836081645547113 src: /10.250.6.191:35100 dest: /10.250.6.191:50010
081109 204739 29 INFO dfs.FSNamesystem: BLOCK* NameSystem.addStoredBlock: blockMap updated: 10.251.70.5:50010 is added to blk_4114836081645547113 size 3543041
081109 204739 33 INFO dfs.FSNamesystem: BLOCK* NameSystem.addStoredBlock: blockMap updated: 10.250.6.191:50010 is added to blk_4114836081645547113 size 3543041
081109 204739 35 INFO dfs.FSNamesystem: BLOCK* NameSystem.addStoredBlock: blockMap updated: 10.251.30.85:50010 is added to blk_4114836081645547113 size 3543041
081109 204739 595 INFO dfs.DataNode$PacketResponder: PacketResponder 2 for block blk_4114836081645547113 terminating
081109 204739 595 INFO dfs.DataNode$PacketResponder: Received block blk_4114836081645547113 of size 3543041 from /10.251.30.85
081109 204739 602 INFO dfs.DataNode$PacketResponder: PacketResponder 1 for block blk_4114836081645547113 terminating
081109 204739 602 INFO dfs.DataNode$PacketResponder: Received block blk_4114836081645547113 of size 3543041 from /10.251.30.85
081109 204739 614 INFO dfs.DataNode$PacketResponder: PacketResponder 0 for block blk_4114836081645547113 terminating
081109 204739 614 INFO dfs.DataNode$PacketResponder: Received block blk_4114836081645547113 of size 3543041 from /10.250.6.191
081109 204755 581 INFO dfs.DataNode$PacketResponder: PacketResponder 0 for block blk_-5657847586075035586 terminating
081109 204755 581 INFO dfs.DataNode$PacketResponder: Received block blk_-5657847586075035586 of size 67108864 from /10.251.122.79
081109 204756 30 INFO dfs.FSNamesystem: BLOCK* NameSystem.addStoredBlock: blockMap updated: 10.251.73.188:50010 is added to blk_-5657847586075035586 size 67108864
081109 204756 32 INFO dfs.FSNamesystem: BLOCK* NameSystem.addStoredBlock: blockMap updated: 10.251.122.79:50010 is added to blk_-5657847586075035586 size 67108864
081109 204756 33 INFO dfs.FSNamesystem: BLOCK* NameSystem.addStoredBlock: blockMap updated: 10.251.202.209:50010 is added to blk_-5657847586075035586 size 67108864
081109 204756 589 INFO dfs.DataNode$PacketResponder: PacketResponder 1 for block blk_-5657847586075035586 terminating
081109 204756 589 INFO dfs.DataNode$PacketResponder: Received block blk_-5657847586075035586 of size 67108864 from /10.251.73.188
081109 204756 600 INFO dfs.DataNode$PacketResponder: PacketResponder 2 for block blk_-5657847586075035586 terminating
081109 204756 600 INFO dfs.DataNode$PacketResponder: Received block blk_-5657847586075035586 of size 67108864 from /10.251.73.188
081109 205508 32 INFO dfs.FSNamesystem: BLOCK* NameSystem.allocateBlock: /user/root/rand/_temporary/_task_200811092030_0001_m_000645_0/part-00645. blk_-3212161715547945852
081109 205508 891 INFO dfs.DataNode$DataXceiver: Receiving block blk_-3212161715547945852 src: /10.251.73.188:41283 dest: /10.251.73.188:50010
081109 205509 770 INFO dfs.DataNode$DataXceiver: Receiving block blk_-3212161715547945852 src: /10.251.73.188:42422 dest: /10.251.73.188:50010
081109 205511 911 INFO dfs.DataNode$DataXceiver: Receiving block blk_-3212161715547945852 src: /10.251.106.10:48881 dest: /10.251.106.10:50010
081109 205546 27 INFO dfs.FSNamesystem: BLOCK* NameSystem.addStoredBlock: blockMap updated: 10.251.106.10:50010 is added to blk_-3212161715547945852 size 67108864
081109 205546 34 INFO dfs.FSNamesystem: BLOCK* NameSystem.addStoredBlock: blockMap updated: 10.251.29.239:50010 is added to blk_-3212161715547945852 size 67108864
081109 205546 774 INFO dfs.DataNode$PacketResponder: PacketResponder 1 for block blk_-3212161715547945852 terminating
081109 205546 774 INFO dfs.DataNode$PacketResponder: Received block blk_-3212161715547945852 of size 67108864 from /10.251.73.188
081109 205546 895 INFO dfs.DataNode$PacketResponder: PacketResponder 2 for block blk_-3212161715547945852 terminating
081109 205546 895 INFO dfs.DataNode$PacketResponder: Received block blk_-3212161715547945852 of size 67108864 from /10.251.73.188
081109 205546 914 INFO dfs.DataNode$PacketResponder: PacketResponder 0 for block blk_-3212161715547945852 terminating
081109 205546 914 INFO dfs.DataNode$PacketResponder: Received block blk_-3212161715547945852 of size 67108864 from /10.251.106.10
081109 205547 31 INFO dfs.FSNamesystem: BLOCK* NameSystem.addStoredBlock: blockMap updated: 10.251.73.188:50010 is added to blk_-3212161715547945852 size 67108864
081109 210659 1318 INFO dfs.DataNode$DataXceiver: Receiving block blk_3142006747336250276 src: /10.250.10.213:34262 dest: /10.250.10.213:50010
081109 210659 1336 INFO dfs.DataNode$DataXceiver: Receiving block blk_3142006747336250276 src: /10.250.10.213:37067 dest: /10.250.10.213:50010
081109 210659 1348 INFO dfs.DataNode$DataXceiver: Receiving block blk_3142006747336250276 src: /10.251.107.242:50091 dest: /10.251.107.242:50010
081109 210659 32 INFO dfs.FSNamesystem: BLOCK* NameSystem.allocateBlock: /user/root/rand/_temporary/_task_200811092030_0001_m_000838_0/part-00838. blk_3142006747336250276
081109 210733 1349 INFO dfs.DataNode$PacketResponder: PacketResponder 0 for block blk_3142006747336250276 terminating
081109 210733 1349 INFO dfs.DataNode$PacketResponder: Received block blk_3142006747336250276 of size 67108864 from /10.251.107.242
081109 210733 33 INFO dfs.FSNamesystem: BLOCK* NameSystem.addStoredBlock: blockMap updated: 10.250.11.85:50010 is added to blk_3142006747336250276 size 67108864
081109 210734 1319 INFO dfs.DataNode$PacketResponder: PacketResponder 2 for block blk_3142006747336250276 terminating
081109 210734 1319 INFO dfs.DataNode$PacketResponder: Received block blk_3142006747336250276 of size 67108864 from /10.250.10.213
081109 210734 1337 INFO dfs.DataNode$PacketResponder: PacketResponder 1 for block blk_3142006747336250276 terminating
081109 210734 1337 INFO dfs.DataNode$PacketResponder: Received block blk_3142006747336250276 of size 67108864 from /10.250.10.213
081109 210734 28 INFO dfs.FSNamesystem: BLOCK* NameSystem.addStoredBlock: blockMap updated: 10.251.107.242:50010 is added to blk_3142006747336250276 size 67108864
081109 210734 34 INFO dfs.FSNamesystem: BLOCK* NameSystem.addStoredBlock: blockMap updated: 10.250.10.213:50010 is added to blk_3142006747336250276 size 67108864
081109 211113 1500 INFO dfs.DataNode$DataXceiver: Receiving block blk_1015109016806279916 src: /10.251.65.203:44945 dest: /10.251.65.203:50010
081109 211113 1513 INFO dfs.DataNode$DataXceiver: Receiving block blk_1015109016806279916 src: /10.251.65.203:47391 dest: /10.251.65.203:50010
081109 211113 32 INFO dfs.FSNamesystem: BLOCK* NameSystem.allocateBlock: /user/root/rand/_temporary/_task_200811092030_0001_m_001313_0/part-01313. blk_1015109016806279916
081109 211114 1532 INFO dfs.DataNode$DataXceiver: Receiving block blk_1015109016806279916 src: /10.251.90.134:50704 dest: /10.251.90.134:50010
081109 211141 1501 INFO dfs.DataNode$PacketResponder: PacketResponder 1 for block blk_1015109016806279916 terminating
081109 211141 1501 INFO dfs.DataNode$PacketResponder: Received block blk_1015109016806279916 of size 67108864 from /10.251.65.203
081109 211141 1514 INFO dfs.DataNode$PacketResponder: PacketResponder 2 for block blk_1015109016806279916 terminating
081109 211141 1514 INFO dfs.DataNode$PacketResponder: Received block blk_1015109016806279916 of size 67108864 from /10.251.65.203
081109 211141 1533 INFO dfs.DataNode$PacketResponder: PacketResponder 0 for block blk_1015109016806279916 terminating
081109 211141 1533 INFO dfs.DataNode$PacketResponder: Received block blk_1015109016806279916 of size 67108864 from /10.251.90.134
081109 211141 32 INFO dfs.FSNamesystem: BLOCK* NameSystem.addStoredBlock: blockMap updated: 10.251.123.195:50010 is added to blk_1015109016806279916 size 67108864
081109 211141 33 INFO dfs.FSNamesystem: BLOCK* NameSystem.addStoredBlock: blockMap updated: 10.251.90.134:50010 is added to blk_1015109016806279916 size 67108864
081109 211141 34 INFO dfs.FSNamesystem: BLOCK* NameSystem.addStoredBlock: blockMap updated: 10.251.65.203:50010 is added to blk_1015109016806279916 size 67108864
081109 211142 1501 INFO dfs.DataNode$DataXceiver: Receiving block blk_-1902726151610118593 src: /10.251.70.112:50156 dest: /10.251.70.112:50010
081109 211142 1552 INFO dfs.DataNode$DataXceiver: Receiving block blk_-1902726151610118593 src: /10.251.70.112:39194 dest: /10.251.70.112:50010
081109 211142 31 INFO dfs.FSNamesystem: BLOCK* NameSystem.allocateBlock: /user/root/rand/_temporary/_task_200811092030_0001_m_001256_0/part-01256. blk_-1902726151610118593
081109 211143 1574 INFO dfs.DataNode$DataXceiver: Receiving block blk_-1902726151610118593 src: /10.251.31.5:34119 dest: /10.251.31.5:50010
081109 211223 1503 INFO dfs.DataNode$PacketResponder: PacketResponder 2 for block blk_-1902726151610118593 terminating
081109 211223 1503 INFO dfs.DataNode$PacketResponder: Received block blk_-1902726151610118593 of size 67108864 from /10.251.70.112
081109 211223 1554 INFO dfs.DataNode$PacketResponder: PacketResponder 1 for block blk_-1902726151610118593 terminating
081109 211223 1554 INFO dfs.DataNode$PacketResponder: Received block blk_-1902726151610118593 of size 67108864 from /10.251.70.112
081109 211223 1575 INFO dfs.DataNode$PacketResponder: PacketResponder 0 for block blk_-1902726151610118593 terminating
081109 211223 1575 INFO dfs.DataNode$PacketResponder: Received block blk_-1902726151610118593 of size 67108864 from /10.251.31.5
081109 211223 28 INFO dfs.FSNamesystem: BLOCK* NameSystem.addStoredBlock: blockMap updated: 10.251.31.5:50010 is added to blk_-1902726151610118593 size 67108864
081109 211223 29 INFO dfs.FSNamesystem: BLOCK* NameSystem.addStoredBlock: blockMap updated: 10.251.70.112:50010 is added to blk_-1902726151610118593 size 67108864
081109 211223 33 INFO dfs.FSNamesystem: BLOCK* NameSystem.addStoredBlock: blockMap updated: 10.251.105.189:50010 is added to blk_-1902726151610118593 size 67108864
081109 211430 13 INFO dfs.DataBlockScanner: Verification succeeded for blk_-5657847586075035586
081109 211730 1798 INFO dfs.DataNode$DataXceiver: Receiving block blk_-5265559100160204198 src: /10.251.195.70:33268 dest: /10.251.195.70:50010
081109 211730 27 INFO dfs.FSNamesystem: BLOCK* NameSystem.allocateBlock: /user/root/rand/_temporary/_task_200811092030_0001_m_001375_0/part-01375. blk_-5265559100160204198
081109 211732 1730 INFO dfs.DataNode$DataXceiver: Receiving block blk_-5265559100160204198 src: /10.251.106.37:34645 dest: /10.251.106.37:50010
081109 211732 1740 INFO dfs.DataNode$DataXceiver: Receiving block blk_-5265559100160204198 src: /10.251.195.70:49027 dest: /10.251.195.70:50010
081109 211759 13 INFO dfs.DataBlockScanner: Verification succeeded for blk_4114836081645547113
081109 211833 1731 INFO dfs.DataNode$PacketResponder: PacketResponder 0 for block blk_-5265559100160204198 terminating
081109 211833 1731 INFO dfs.DataNode$PacketResponder: Received block blk_-5265559100160204198 of size 67108864 from /10.251.106.37
081109 211833 1741 INFO dfs.DataNode$PacketResponder: PacketResponder 1 for block blk_-5265559100160204198 terminating
081109 211833 1741 INFO dfs.DataNode$PacketResponder: Received block blk_-5265559100160204198 of size 67108864 from /10.251.195.70
081109 211833 1799 INFO dfs.DataNode$PacketResponder: PacketResponder 2 for block blk_-5265559100160204198 terminating
081109 211833 1799 INFO dfs.DataNode$PacketResponder: Received block blk_-5265559100160204198 of size 67108864 from /10.251.195.70
081109 211833 29 INFO dfs.FSNamesystem: BLOCK* NameSystem.addStoredBlock: blockMap updated: 10.251.195.70:50010 is added to blk_-5265559100160204198 size 67108864
081109 211833 31 INFO dfs.FSNamesystem: BLOCK* NameSystem.addStoredBlock: blockMap updated: 10.251.106.37:50010 is added to blk_-5265559100160204198 size 67108864
081109 211833 35 INFO dfs.FSNamesystem: BLOCK* NameSystem.addStoredBlock: blockMap updated: 10.250.18.114:50010 is added to blk_-5265559100160204198 size 67108864
081109 212114 1879 INFO dfs.DataNode$DataXceiver: Receiving block blk_5015382748364055161 src: /10.251.109.236:45981 dest: /10.251.109.236:50010
081109 212114 1880 INFO dfs.DataNode$DataXceiver: Receiving block blk_5015382748364055161 src: /10.250.5.237:32771 dest: /10.250.5.237:50010
081109 212114 1896 INFO dfs.DataNode$DataXceiver: Receiving block blk_5015382748364055161 src: /10.250.5.237:34977 dest: /10.250.5.237:50010
081109 212114 33 INFO dfs.FSNamesystem: BLOCK* NameSystem.allocateBlock: /user/root/rand/_temporary/_task_200811092030_0001_m_001502_0/part-01502. blk_5015382748364055161
081109 212159 1880 INFO dfs.DataNode$PacketResponder: PacketResponder 0 for block blk_5015382748364055161 terminating
081109 212159 1880 INFO dfs.DataNode$PacketResponder: Received block blk_5015382748364055161 of size 67108864 from /10.251.109.236
081109 212159 29 INFO dfs.FSNamesystem: BLOCK* NameSystem.addStoredBlock: blockMap updated: 10.250.10.6:50010 is added to blk_5015382748364055161 size 67108864
081109 212200 1882 INFO dfs.DataNode$PacketResponder: PacketResponder 1 for block blk_5015382748364055161 terminating
081109 212200 1882 INFO dfs.DataNode$PacketResponder: Received block blk_5015382748364055161 of size 67108864 from /10.250.5.237
081109 212200 1897 INFO dfs.DataNode$PacketResponder: PacketResponder 2 for block blk_5015382748364055161 terminating
081109 212200 1897 INFO dfs.DataNode$PacketResponder: Received block blk_5015382748364055161 of size 67108864 from /10.250.5.237
081109 212200 32 INFO dfs.FSNamesystem: BLOCK* NameSystem.addStoredBlock: blockMap updated: 10.251.109.236:50010 is added to blk_5015382748364055161 size 67108864
081109 212200 34 INFO dfs.FSNamesystem: BLOCK* NameSystem.addStoredBlock: blockMap updated: 10.250.5.237:50010 is added to blk_5015382748364055161 size 67108864
081109 213922 2497 WARN dfs.DataNode$DataXceiver: 10.251.202.209:50010:Got exception while serving blk_-5657847586075035586 to /10.251.39.192:
081109 213938 2533 WARN dfs.DataNode$DataXceiver: 10.251.125.237:50010:Got exception while serving blk_3844581002541250978 to /10.251.125.237:
081109 214004 2540 INFO dfs.DataNode$DataXceiver: 10.251.30.85:50010 Served block blk_4114836081645547113 to /10.251.30.85
081109 214127 2563 WARN dfs.DataNode$DataXceiver: 10.250.10.213:50010:Got exception while serving blk_3142006747336250276 to /10.251.30.85:
081109 214144 2565 INFO dfs.DataNode$DataXceiver: 10.250.10.213:50010 Served block blk_3142006747336250276 to /10.251.30.85
081109 214451 2771 WARN dfs.DataNode$DataXceiver: 10.251.66.192:50010:Got exception while serving blk_7268649045879732129 to /10.251.203.129:
081109 214537 2742 WARN dfs.DataNode$DataXceiver: 10.251.39.192:50010:Got exception while serving blk_7268649045879732129 to /10.251.39.192:
081109 214603 2744 INFO dfs.DataNode$DataXceiver: 10.251.39.192:50010 Served block blk_7268649045879732129 to /10.251.39.192
081109 215640 3032 WARN dfs.DataNode$DataXceiver: 10.251.90.64:50010:Got exception while serving blk_3844581002541250978 to /10.250.5.161:
081109 215641 3065 WARN dfs.DataNode$DataXceiver: 10.251.126.83:50010:Got exception while serving blk_3844581002541250978 to /10.251.214.112:
081109 215642 2988 WARN dfs.DataNode$DataXceiver: 10.251.125.237:50010:Got exception while serving blk_3844581002541250978 to /10.250.7.146:
081109 215649 3036 WARN dfs.DataNode$DataXceiver: 10.251.90.64:50010:Got exception while serving blk_3844581002541250978 to /10.251.203.179:
081109 215652 3073 WARN dfs.DataNode$DataXceiver: 10.251.126.83:50010:Got exception while serving blk_3844581002541250978 to /10.251.107.98:
081109 215658 3076 WARN dfs.DataNode$DataXceiver: 10.251.126.83:50010:Got exception while serving blk_3844581002541250978 to /10.251.126.22:
081109 215705 3079 WARN dfs.DataNode$DataXceiver: 10.251.126.83:50010:Got exception while serving blk_3844581002541250978 to /10.250.10.6:
081109 215705 3080 WARN dfs.DataNode$DataXceiver: 10.251.126.83:50010:Got exception while serving blk_3844581002541250978 to /10.250.7.230:
081109 215710 3004 WARN dfs.DataNode$DataXceiver: 10.251.125.237:50010:Got exception while serving blk_3844581002541250978 to /10.251.26.131:
081109 215713 3040 WARN dfs.DataNode$DataXceiver: 10.251.73.188:50010:Got exception while serving blk_-5657847586075035586 to /10.251.106.10:
081109 215749 3091 WARN dfs.DataNode$DataXceiver: 10.251.126.83:50010:Got exception while serving blk_3844581002541250978 to /10.251.126.83:
081109 215804 3055 INFO dfs.DataNode$DataXceiver: 10.251.90.64:50010 Served block blk_3844581002541250978 to /10.251.90.64
081109 215804 3062 WARN dfs.DataNode$DataXceiver: 10.251.90.64:50010:Got exception while serving blk_3844581002541250978 to /10.251.30.85:
081109 215807 3097 WARN dfs.DataNode$DataXceiver: 10.251.126.83:50010:Got exception while serving blk_3844581002541250978 to /10.251.67.225:
081109 215828 3059 WARN dfs.DataNode$DataXceiver: 10.251.125.237:50010:Got exception while serving blk_3844581002541250978 to /10.251.30.6:
081109 215835 3086 WARN dfs.DataNode$DataXceiver: 10.251.90.64:50010:Got exception while serving blk_3844581002541250978 to /10.251.90.239:
081109 215947 3099 WARN dfs.DataNode$DataXceiver: 10.251.73.188:50010:Got exception while serving blk_-5657847586075035586 to /10.251.111.37:
081109 215948 3101 WARN dfs.DataNode$DataXceiver: 10.251.73.188:50010:Got exception while serving blk_-3212161715547945852 to /10.251.111.37:
081109 220011 3114 WARN dfs.DataNode$DataXceiver: 10.251.73.188:50010:Got exception while serving blk_-5657847586075035586 to /10.251.30.85:
081109 220025 3077 WARN dfs.DataNode$DataXceiver: 10.251.202.209:50010:Got exception while serving blk_-5657847586075035586 to /10.251.74.192:
081109 220028 3118 WARN dfs.DataNode$DataXceiver: 10.251.122.79:50010:Got exception while serving blk_-5657847586075035586 to /10.251.122.65:
081109 220031 3119 WARN dfs.DataNode$DataXceiver: 10.251.73.188:50010:Got exception while serving blk_-5657847586075035586 to /10.251.194.147:
081109 220033 3079 INFO dfs.DataNode$DataXceiver: 10.251.202.209:50010 Served block blk_-5657847586075035586 to /10.251.202.209
081109 220039 3102 INFO dfs.DataNode$DataXceiver: 10.251.73.188:50010 Served block blk_-3212161715547945852 to /10.251.111.37
081109 220041 3085 WARN dfs.DataNode$DataXceiver: 10.251.202.209:50010:Got exception while serving blk_-5657847586075035586 to /10.251.202.209:
081109 220041 3087 WARN dfs.DataNode$DataXceiver: 10.251.202.209:50010:Got exception while serving blk_-5657847586075035586 to /10.251.39.64:
081109 220057 3094 WARN dfs.DataNode$DataXceiver: 10.251.202.209:50010:Got exception while serving blk_-5657847586075035586 to /10.251.106.37:
081109 220103 3140 WARN dfs.DataNode$DataXceiver: 10.251.73.188:50010:Got exception while serving blk_-5657847586075035586 to /10.251.73.188:
081109 220105 3097 WARN dfs.DataNode$DataXceiver: 10.251.202.209:50010:Got exception while serving blk_-5657847586075035586 to /10.251.70.112:
081109 220108 3138 WARN dfs.DataNode$DataXceiver: 10.251.122.79:50010:Got exception while serving blk_-5657847586075035586 to /10.251.203.166:
081109 220108 3139 WARN dfs.DataNode$DataXceiver: 10.251.122.79:50010:Got exception while serving blk_-5657847586075035586 to /10.251.126.5:
081109 220111 3140 WARN dfs.DataNode$DataXceiver: 10.251.122.79:50010:Got exception while serving blk_-5657847586075035586 to /10.251.107.50:
081109 220150 3167 WARN dfs.DataNode$DataXceiver: 10.251.73.188:50010:Got exception while serving blk_-3212161715547945852 to /10.251.107.50:
081109 220850 3294 WARN dfs.DataNode$DataXceiver: 10.250.11.85:50010:Got exception while serving blk_3142006747336250276 to /10.251.67.225:
081109 221918 13 INFO dfs.DataBlockScanner: Verification succeeded for blk_7268649045879732129
081109 222256 3528 WARN dfs.DataNode$DataXceiver: 10.251.105.189:50010:Got exception while serving blk_-1902726151610118593 to /10.250.14.38:
081109 222345 3461 WARN dfs.DataNode$DataXceiver: 10.251.70.112:50010:Got exception while serving blk_-1902726151610118593 to /10.250.18.114:
081109 222353 3529 INFO dfs.DataNode$DataXceiver: 10.251.105.189:50010 Served block blk_-1902726151610118593 to /10.250.14.38
081109 222601 3497 WARN dfs.DataNode$DataXceiver: 10.251.123.195:50010:Got exception while serving blk_1015109016806279916 to /10.251.203.166:
081109 222606 3498 INFO dfs.DataNode$DataXceiver: 10.251.123.195:50010 Served block blk_1015109016806279916 to /10.251.203.166
081109 222651 3546 WARN dfs.DataNode$DataXceiver: 10.251.65.203:50010:Got exception while serving blk_1015109016806279916 to /10.251.193.175:
081109 222856 3605 WARN dfs.DataNode$DataXceiver: 10.251.195.70:50010:Got exception while serving blk_-5265559100160204198 to /10.251.195.70:
081109 222954 3606 INFO dfs.DataNode$DataXceiver: 10.251.195.70:50010 Served block blk_-5265559100160204198 to /10.251.195.70
081109 223127 3640 WARN dfs.DataNode$DataXceiver: 10.251.195.70:50010:Got exception while serving blk_-5265559100160204198 to /10.251.126.255:
081109 223357 3554 WARN dfs.DataNode$DataXceiver: 10.250.10.6:50010:Got exception while serving blk_5015382748364055161 to /10.251.31.180:
081109 223432 3628 WARN dfs.DataNode$DataXceiver: 10.250.5.237:50010:Got exception while serving blk_5015382748364055161 to /10.251.201.204:
081109 223435 3555 INFO dfs.DataNode$DataXceiver: 10.250.10.6:50010 Served block blk_5015382748364055161 to /10.251.31.180
081109 232519 32 INFO dfs.FSNamesystem: BLOCK* NameSystem.allocateBlock: /user/root/sortrand/_temporary/_task_200811092030_0002_r_000213_0/part-00213. blk_5952611007894728739
081109 232519 3793 INFO dfs.DataNode$DataXceiver: Receiving block blk_5952611007894728739 src: /10.251.199.245:42232 dest: /10.251.199.245:50010
081109 232519 3875 INFO dfs.DataNode$DataXceiver: Receiving block blk_5952611007894728739 src: /10.251.199.245:60319 dest: /10.251.199.245:50010
081109 232519 3882 INFO dfs.DataNode$DataXceiver: Receiving block blk_5952611007894728739 src: /10.250.7.96:52481 dest: /10.250.7.96:50010
081109 232537 29 INFO dfs.FSNamesystem: BLOCK* NameSystem.addStoredBlock: blockMap updated: 10.250.7.96:50010 is added to blk_5952611007894728739 size 67108864
081109 232537 30 INFO dfs.FSNamesystem: BLOCK* NameSystem.addStoredBlock: blockMap updated: 10.251.75.79:50010 is added to blk_5952611007894728739 size 67108864
081109 232537 33 INFO dfs.FSNamesystem: BLOCK* NameSystem.addStoredBlock: blockMap updated: 10.251.199.245:50010 is added to blk_5952611007894728739 size 67108864
081109 232537 3794 INFO dfs.DataNode$PacketResponder: PacketResponder 2 for block blk_5952611007894728739 terminating
081109 232537 3794 INFO dfs.DataNode$PacketResponder: Received block blk_5952611007894728739 of size 67108864 from /10.251.199.245
081109 232537 3876 INFO dfs.DataNode$PacketResponder: PacketResponder 1 for block blk_5952611007894728739 terminating
081109 232537 3876 INFO dfs.DataNode$PacketResponder: Received block blk_5952611007894728739 of size 67108864 from /10.251.199.245
081109 232537 3883 INFO dfs.DataNode$PacketResponder: PacketResponder 0 for block blk_5952611007894728739 terminating
081109 232537 3883 INFO dfs.DataNode$PacketResponder: Received block blk_5952611007894728739 of size 67108864 from /10.250.7.96
081109 233842 34 INFO dfs.FSNamesystem: BLOCK* NameSystem.allocateBlock: /user/root/sortrand/_temporary/_task_200811092030_0002_r_000321_0/part-00321. blk_-430901031854681295
081109 233843 3859 INFO dfs.DataNode$DataXceiver: Receiving block blk_-430901031854681295 src: /10.251.70.5:40366 dest: /10.251.70.5:50010
081109 233843 4103 INFO dfs.DataNode$DataXceiver: Receiving block blk_-430901031854681295 src: /10.251.74.192:45946 dest: /10.251.74.192:50010
081109 233843 4157 INFO dfs.DataNode$DataXceiver: Receiving block blk_-430901031854681295 src: /10.251.74.192:57166 dest: /10.251.74.192:50010
081109 233921 30 INFO dfs.FSNamesystem: BLOCK* NameSystem.addStoredBlock: blockMap updated: 10.251.107.50:50010 is added to blk_-430901031854681295 size 67108864
081109 233921 35 INFO dfs.FSNamesystem: BLOCK* NameSystem.addStoredBlock: blockMap updated: 10.251.70.5:50010 is added to blk_-430901031854681295 size 67108864
081109 233921 35 INFO dfs.FSNamesystem: BLOCK* NameSystem.addStoredBlock: blockMap updated: 10.251.74.192:50010 is added to blk_-430901031854681295 size 67108864
081109 233921 3860 INFO dfs.DataNode$PacketResponder: PacketResponder 0 for block blk_-430901031854681295 terminating
081109 233921 3860 INFO dfs.DataNode$PacketResponder: Received block blk_-430901031854681295 of size 67108864 from /10.251.70.5
081109 233921 4104 INFO dfs.DataNode$PacketResponder: PacketResponder 1 for block blk_-430901031854681295 terminating
081109 233921 4104 INFO dfs.DataNode$PacketResponder: Received block blk_-430901031854681295 of size 67108864 from /10.251.74.192
081109 233921 4158 INFO dfs.DataNode$PacketResponder: PacketResponder 2 for block blk_-430901031854681295 terminating
081109 233921 4158 INFO dfs.DataNode$PacketResponder: Received block blk_-430901031854681295 of size 67108864 from /10.251.74.192
081109 234311 29 INFO dfs.FSNamesystem: BLOCK* NameSystem.allocateBlock: /user/root/sortrand/_temporary/_task_200811092030_0002_r_000071_0/part-00071. blk_7328330497149854025
081109 234311 4156 INFO dfs.DataNode$DataXceiver: Receiving block blk_7328330497149854025 src: /10.251.105.189:35736 dest: /10.251.105.189:50010
081109 234311 4210 INFO dfs.DataNode$DataXceiver: Receiving block blk_7328330497149854025 src: /10.251.26.8:59534 dest: /10.251.26.8:50010
081109 234311 4249 INFO dfs.DataNode$DataXceiver: Receiving block blk_7328330497149854025 src: /10.251.105.189:47001 dest: /10.251.105.189:50010
081109 234348 26 INFO dfs.FSNamesystem: BLOCK* NameSystem.addStoredBlock: blockMap updated: 10.251.26.8:50010 is added to blk_7328330497149854025 size 67108864
081109 234348 27 INFO dfs.FSNamesystem: BLOCK* NameSystem.addStoredBlock: blockMap updated: 10.251.105.189:50010 is added to blk_7328330497149854025 size 67108864
081109 234348 30 INFO dfs.FSNamesystem: BLOCK* NameSystem.addStoredBlock: blockMap updated: 10.251.75.79:50010 is added to blk_7328330497149854025 size 67108864
081109 234348 4157 INFO dfs.DataNode$PacketResponder: PacketResponder 1 for block blk_7328330497149854025 terminating
081109 234348 4157 INFO dfs.DataNode$PacketResponder: Received block blk_7328330497149854025 of size 67108864 from /10.251.105.189
081109 234348 4211 INFO dfs.DataNode$PacketResponder: PacketResponder 0 for block blk_7328330497149854025 terminating
081109 234348 4211 INFO dfs.DataNode$PacketResponder: Received block blk_7328330497149854025 of size 67108864 from /10.251.26.8
081109 234348 4251 INFO dfs.DataNode$PacketResponder: PacketResponder 2 for block blk_7328330497149854025 terminating
081109 234348 4251 INFO dfs.DataNode$PacketResponder: Received block blk_7328330497149854025 of size 67108864 from /10.251.105.189
081109 234641 13 INFO dfs.DataBlockScanner: Verification succeeded for blk_7268649045879732129
081109 235246 30 INFO dfs.FSNamesystem: BLOCK* NameSystem.allocateBlock: /user/root/sortrand/_temporary/_task_200811092030_0002_r_000279_0/part-00279. blk_4705285038953734978
081109 235246 4313 INFO dfs.DataNode$DataXceiver: Receiving block blk_4705285038953734978 src: /10.251.195.70:37287 dest: /10.251.195.70:50010
081109 235246 4320 INFO dfs.DataNode$DataXceiver: Receiving block blk_4705285038953734978 src: /10.251.89.155:52921 dest: /10.251.89.155:50010
081109 235246 4464 INFO dfs.DataNode$DataXceiver: Receiving block blk_4705285038953734978 src: /10.251.195.70:37609 dest: /10.251.195.70:50010
081109 235341 29 INFO dfs.FSNamesystem: BLOCK* NameSystem.addStoredBlock: blockMap updated: 10.251.195.70:50010 is added to blk_4705285038953734978 size 67108864
081109 235341 29 INFO dfs.FSNamesystem: BLOCK* NameSystem.addStoredBlock: blockMap updated: 10.251.89.155:50010 is added to blk_4705285038953734978 size 67108864
081109 235341 34 INFO dfs.FSNamesystem: BLOCK* NameSystem.addStoredBlock: blockMap updated: 10.250.6.4:50010 is added to blk_4705285038953734978 size 67108864
081109 235341 4314 INFO dfs.DataNode$PacketResponder: PacketResponder 1 for block blk_4705285038953734978 terminating
081109 235341 4314 INFO dfs.DataNode$PacketResponder: Received block blk_4705285038953734978 of size 67108864 from /10.251.195.70
081109 235341 4321 INFO dfs.DataNode$PacketResponder: PacketResponder 0 for block blk_4705285038953734978 terminating
081109 235341 4321 INFO dfs.DataNode$PacketResponder: Received block blk_4705285038953734978 of size 67108864 from /10.251.89.155
081109 235341 4465 INFO dfs.DataNode$PacketResponder: PacketResponder 2 for block blk_4705285038953734978 terminating
081109 235341 4465 INFO dfs.DataNode$PacketResponder: Received block blk_4705285038953734978 of size 67108864 from /10.251.195.70
081109 235818 4482 INFO dfs.DataNode$DataXceiver: Receiving block blk_621880599685510000 src: /10.251.126.227:51390 dest: /10.251.126.227:50010
081109 235819 32 INFO dfs.FSNamesystem: BLOCK* NameSystem.allocateBlock: /user/root/sortrand/_temporary/_task_200811092030_0002_r_000005_0/part-00005. blk_621880599685510000
081109 235819 3598 INFO dfs.DataNode$DataXceiver: Receiving block blk_621880599685510000 src: /10.251.67.225:39797 dest: /10.251.67.225:50010
081109 235819 4410 INFO dfs.DataNode$DataXceiver: Receiving block blk_621880599685510000 src: /10.251.126.227:44459 dest: /10.251.126.227:50010
081109 235901 35 INFO dfs.FSNamesystem: BLOCK* NameSystem.allocateBlock: /user/root/sortrand/_temporary/_task_200811092030_0002_r_000131_0/part-00131. blk_4753514775773618226
081109 235901 4296 INFO dfs.DataNode$DataXceiver: Receiving block blk_4753514775773618226 src: /10.251.125.174:46858 dest: /10.251.125.174:50010
081109 235901 4502 INFO dfs.DataNode$DataXceiver: Receiving block blk_4753514775773618226 src: /10.251.125.174:43253 dest: /10.251.125.174:50010
081109 235901 4504 INFO dfs.DataNode$DataXceiver: Receiving block blk_4753514775773618226 src: /10.251.123.132:59434 dest: /10.251.123.132:50010
081109 235925 32 INFO dfs.FSNamesystem: BLOCK* NameSystem.addStoredBlock: blockMap updated: 10.251.123.132:50010 is added to blk_4753514775773618226 size 67108864
081109 235925 33 INFO dfs.FSNamesystem: BLOCK* NameSystem.addStoredBlock: blockMap updated: 10.251.125.174:50010 is added to blk_4753514775773618226 size 67108864
081109 235925 35 INFO dfs.FSNamesystem: BLOCK* NameSystem.addStoredBlock: blockMap updated: 10.251.193.224:50010 is added to blk_4753514775773618226 size 67108864
081109 235925 4297 INFO dfs.DataNode$PacketResponder: PacketResponder 1 for block blk_4753514775773618226 terminating
081109 235925 4297 INFO dfs.DataNode$PacketResponder: Received block blk_4753514775773618226 of size 67108864 from /10.251.125.174
081109 235925 4503 INFO dfs.DataNode$PacketResponder: PacketResponder 2 for block blk_4753514775773618226 terminating
081109 235925 4503 INFO dfs.DataNode$PacketResponder: Received block blk_4753514775773618226 of size 67108864 from /10.251.125.174
081109 235925 4505 INFO dfs.DataNode$PacketResponder: PacketResponder 0 for block blk_4753514775773618226 terminating
081109 235925 4505 INFO dfs.DataNode$PacketResponder: Received block blk_4753514775773618226 of size 67108864 from /10.251.123.132
081110 000201 3599 INFO dfs.DataNode$PacketResponder: PacketResponder 0 for block blk_621880599685510000 terminating
081110 000201 3599 INFO dfs.DataNode$PacketResponder: Received block blk_621880599685510000 of size 67108864 from /10.251.67.225
081110 000201 4411 INFO dfs.DataNode$PacketResponder: PacketResponder 1 for block blk_621880599685510000 terminating
081110 000201 4411 INFO dfs.DataNode$PacketResponder: Received block blk_621880599685510000 of size 67108864 from /10.251.126.227
081110 000201 4483 INFO dfs.DataNode$PacketResponder: PacketResponder 2 for block blk_621880599685510000 terminating
081110 000201 4483 INFO dfs.DataNode$PacketResponder: Received block blk_621880599685510000 of size 67108864 from /10.251.126.227
081110 000202 28 INFO dfs.FSNamesystem: BLOCK* NameSystem.addStoredBlock: blockMap updated: 10.251.126.227:50010 is added to blk_621880599685510000 size 67108864
081110 000202 29 INFO dfs.FSNamesystem: BLOCK* NameSystem.addStoredBlock: blockMap updated: 10.251.123.33:50010 is added to blk_621880599685510000 size 67108864
081110 000202 29 INFO dfs.FSNamesystem: BLOCK* NameSystem.addStoredBlock: blockMap updated: 10.251.67.225:50010 is added to blk_621880599685510000 size 67108864
081110 000244 34 INFO dfs.FSNamesystem: BLOCK* NameSystem.allocateBlock: /user/root/sortrand/_temporary/_task_200811092030_0002_r_000341_0/part-00341. blk_1075002162913718819
081110 000244 4510 INFO dfs.DataNode$DataXceiver: Receiving block blk_1075002162913718819 src: /10.251.199.19:58703 dest: /10.251.199.19:50010
081110 000244 4526 INFO dfs.DataNode$DataXceiver: Receiving block blk_1075002162913718819 src: /10.251.75.143:44687 dest: /10.251.75.143:50010
081110 000244 4653 INFO dfs.DataNode$DataXceiver: Receiving block blk_1075002162913718819 src: /10.251.199.19:59577 dest: /10.251.199.19:50010
081110 000304 27 INFO dfs.FSNamesystem: BLOCK* NameSystem.addStoredBlock: blockMap updated: 10.251.199.19:50010 is added to blk_1075002162913718819 size 67108864
081110 000304 32 INFO dfs.FSNamesystem: BLOCK* NameSystem.addStoredBlock: blockMap updated: 10.251.42.16:50010 is added to blk_1075002162913718819 size 67108864
081110 000304 34 INFO dfs.FSNamesystem: BLOCK* NameSystem.addStoredBlock: blockMap updated: 10.251.75.143:50010 is added to blk_1075002162913718819 size 67108864
081110 000304 4511 INFO dfs.DataNode$PacketResponder: PacketResponder 2 for block blk_1075002162913718819 terminating
081110 000304 4511 INFO dfs.DataNode$PacketResponder: Received block blk_1075002162913718819 of size 67108864 from /10.251.199.19
081110 000304 4527 INFO dfs.DataNode$PacketResponder: PacketResponder 0 for block blk_1075002162913718819 terminating
081110 000304 4527 INFO dfs.DataNode$PacketResponder: Received block blk_1075002162913718819 of size 67108864 from /10.251.75.143
081110 000304 4654 INFO dfs.DataNode$PacketResponder: PacketResponder 1 for block blk_1075002162913718819 terminating
081110 000304 4654 INFO dfs.DataNode$PacketResponder: Received block blk_1075002162913718819 of size 67108864 from /10.251.199.19
081110 002116 35 INFO dfs.FSNamesystem: BLOCK* NameSystem.allocateBlock: /user/root/sortrand/_temporary/_task_200811092030_0002_r_000328_0/part-00328. blk_-7349233749672583537
081110 002116 3753 INFO dfs.DataNode$DataXceiver: Receiving block blk_-7349233749672583537 src: /10.251.25.237:53831 dest: /10.251.25.237:50010
081110 002116 4599 INFO dfs.DataNode$DataXceiver: Receiving block blk_-7349233749672583537 src: /10.251.39.160:47804 dest: /10.251.39.160:50010
081110 002116 4924 INFO dfs.DataNode$DataXceiver: Receiving block blk_-7349233749672583537 src: /10.251.25.237:35227 dest: /10.251.25.237:50010
081110 002205 30 INFO dfs.FSNamesystem: BLOCK* NameSystem.addStoredBlock: blockMap updated: 10.251.39.160:50010 is added to blk_-7349233749672583537 size 67108864
081110 002205 32 INFO dfs.FSNamesystem: BLOCK* NameSystem.addStoredBlock: blockMap updated: 10.251.25.237:50010 is added to blk_-7349233749672583537 size 67108864
081110 002205 33 INFO dfs.FSNamesystem: BLOCK* NameSystem.addStoredBlock: blockMap updated: 10.250.14.224:50010 is added to blk_-7349233749672583537 size 67108864
081110 002205 3754 INFO dfs.DataNode$PacketResponder: PacketResponder 1 for block blk_-7349233749672583537 terminating
081110 002205 3754 INFO dfs.DataNode$PacketResponder: Received block blk_-7349233749672583537 of size 67108864 from /10.251.25.237
081110 002205 4600 INFO dfs.DataNode$PacketResponder: PacketResponder 0 for block blk_-7349233749672583537 terminating
081110 002205 4600 INFO dfs.DataNode$PacketResponder: Received block blk_-7349233749672583537 of size 67108864 from /10.251.39.160
081110 002205 4925 INFO dfs.DataNode$PacketResponder: PacketResponder 2 for block blk_-7349233749672583537 terminating
081110 002205 4925 INFO dfs.DataNode$PacketResponder: Received block blk_-7349233749672583537 of size 67108864 from /10.251.25.237
081110 002212 32 INFO dfs.FSNamesystem: BLOCK* NameSystem.allocateBlock: /user/root/sortrand/_temporary/_task_200811092030_0002_r_000285_0/part-00285. blk_9101942982087725184
081110 002212 4738 INFO dfs.DataNode$DataXceiver: Receiving block blk_9101942982087725184 src: /10.251.42.207:55890 dest: /10.251.42.207:50010
081110 002212 4826 INFO dfs.DataNode$DataXceiver: Receiving block blk_9101942982087725184 src: /10.251.42.207:52502 dest: /10.251.42.207:50010
081110 002212 4829 INFO dfs.DataNode$DataXceiver: Receiving block blk_9101942982087725184 src: /10.251.35.1:47487 dest: /10.251.35.1:50010
081110 002235 27 INFO dfs.FSNamesystem: BLOCK* NameSystem.addStoredBlock: blockMap updated: 10.251.35.1:50010 is added to blk_9101942982087725184 size 10251189
081110 002235 29 INFO dfs.FSNamesystem: BLOCK* NameSystem.addStoredBlock: blockMap updated: 10.251.71.68:50010 is added to blk_9101942982087725184 size 10251189
081110 002235 33 INFO dfs.FSNamesystem: BLOCK* NameSystem.addStoredBlock: blockMap updated: 10.251.42.207:50010 is added to blk_9101942982087725184 size 10251189
081110 002235 4739 INFO dfs.DataNode$PacketResponder: PacketResponder 1 for block blk_9101942982087725184 terminating
081110 002235 4739 INFO dfs.DataNode$PacketResponder: Received block blk_9101942982087725184 of size 10251189 from /10.251.42.207
081110 002235 4827 INFO dfs.DataNode$PacketResponder: PacketResponder 2 for block blk_9101942982087725184 terminating
081110 002235 4827 INFO dfs.DataNode$PacketResponder: Received block blk_9101942982087725184 of size 10251189 from /10.251.42.207
081110 002235 4830 INFO dfs.DataNode$PacketResponder: PacketResponder 0 for block blk_9101942982087725184 terminating
081110 002235 4830 INFO dfs.DataNode$PacketResponder: Received block blk_9101942982087725184 of size 10251189 from /10.251.35.1
081110 010223 32 INFO dfs.FSNamesystem: BLOCK* NameSystem.allocateBlock: /user/root/randtxt/_temporary/_task_200811092030_0003_m_000257_0/part-00257. blk_-4407169605440420846
081110 010223 4956 INFO dfs.DataNode$DataXceiver: Receiving block blk_-4407169605440420846 src: /10.251.74.227:57343 dest: /10.251.74.227:50010
081110 010223 5097 INFO dfs.DataNode$DataXceiver: Receiving block blk_-4407169605440420846 src: /10.251.31.85:34393 dest: /10.251.31.85:50010
081110 010223 5134 INFO dfs.DataNode$DataXceiver: Receiving block blk_-4407169605440420846 src: /10.251.74.227:48929 dest: /10.251.74.227:50010
081110 010324 26 INFO dfs.FSNamesystem: BLOCK* NameSystem.allocateBlock: /user/root/randtxt/_temporary/_task_200811092030_0003_m_000064_0/part-00064. blk_8734648595969039069
081110 010324 31 INFO dfs.FSNamesystem: BLOCK* NameSystem.addStoredBlock: blockMap updated: 10.250.10.176:50010 is added to blk_-4407169605440420846 size 67108864
081110 010324 5077 INFO dfs.DataNode$DataXceiver: Receiving block blk_8734648595969039069 src: /10.251.91.84:41287 dest: /10.251.91.84:50010
081110 010324 5098 INFO dfs.DataNode$PacketResponder: PacketResponder 0 for block blk_-4407169605440420846 terminating
081110 010324 5098 INFO dfs.DataNode$PacketResponder: Received block blk_-4407169605440420846 of size 67108864 from /10.251.31.85
081110 010324 5123 INFO dfs.DataNode$DataXceiver: Receiving block blk_8734648595969039069 src: /10.251.91.84:42530 dest: /10.251.91.84:50010
081110 010325 29 INFO dfs.FSNamesystem: BLOCK* NameSystem.addStoredBlock: blockMap updated: 10.251.74.227:50010 is added to blk_-4407169605440420846 size 67108864
081110 010325 34 INFO dfs.FSNamesystem: BLOCK* NameSystem.addStoredBlock: blockMap updated: 10.251.31.85:50010 is added to blk_-4407169605440420846 size 67108864
081110 010325 4957 INFO dfs.DataNode$PacketResponder: PacketResponder 2 for block blk_-4407169605440420846 terminating
081110 010325 4957 INFO dfs.DataNode$PacketResponder: Received block blk_-4407169605440420846 of size 67108864 from /10.251.74.227
081110 010325 5135 INFO dfs.DataNode$PacketResponder: PacketResponder 1 for block blk_-4407169605440420846 terminating
081110 010325 5135 INFO dfs.DataNode$PacketResponder: Received block blk_-4407169605440420846 of size 67108864 from /10.251.74.227
081110 010328 4910 INFO dfs.DataNode$DataXceiver: Receiving block blk_8734648595969039069 src: /10.250.10.176:42763 dest: /10.250.10.176:50010
081110 010413 28 INFO dfs.FSNamesystem: BLOCK* NameSystem.addStoredBlock: blockMap updated: 10.251.91.84:50010 is added to blk_8734648595969039069 size 67108864
081110 010413 29 INFO dfs.FSNamesystem: BLOCK* NameSystem.addStoredBlock: blockMap updated: 10.251.109.209:50010 is added to blk_8734648595969039069 size 67108864
081110 010413 31 INFO dfs.FSNamesystem: BLOCK* NameSystem.addStoredBlock: blockMap updated: 10.250.10.176:50010 is added to blk_8734648595969039069 size 67108864
081110 010413 4911 INFO dfs.DataNode$PacketResponder: PacketResponder 0 for block blk_8734648595969039069 terminating
081110 010413 4911 INFO dfs.DataNode$PacketResponder: Received block blk_8734648595969039069 of size 67108864 from /10.250.10.176
081110 010413 5080 INFO dfs.DataNode$PacketResponder: PacketResponder 2 for block blk_8734648595969039069 terminating
081110 010413 5080 INFO dfs.DataNode$PacketResponder: Received block blk_8734648595969039069 of size 67108864 from /10.251.91.84
081110 010413 5128 INFO dfs.DataNode$PacketResponder: PacketResponder 1 for block blk_8734648595969039069 terminating
081110 010413 5128 INFO dfs.DataNode$PacketResponder: Received block blk_8734648595969039069 of size 67108864 from /10.251.91.84
081110 011515 33 INFO dfs.FSNamesystem: BLOCK* NameSystem.allocateBlock: /user/root/randtxt/_temporary/_task_200811092030_0003_m_000735_0/part-00735. blk_-1633451012039995780
081110 011515 5239 INFO dfs.DataNode$DataXceiver: Receiving block blk_-1633451012039995780 src: /10.250.7.96:45225 dest: /10.250.7.96:50010
081110 011515 5336 INFO dfs.DataNode$DataXceiver: Receiving block blk_-1633451012039995780 src: /10.250.7.96:33022 dest: /10.250.7.96:50010
081110 011516 4984 INFO dfs.DataNode$DataXceiver: Receiving block blk_-1633451012039995780 src: /10.251.107.196:41382 dest: /10.251.107.196:50010
081110 011612 31 INFO dfs.FSNamesystem: BLOCK* NameSystem.addStoredBlock: blockMap updated: 10.251.107.196:50010 is added to blk_-1633451012039995780 size 67108864
081110 011612 35 INFO dfs.FSNamesystem: BLOCK* NameSystem.addStoredBlock: blockMap updated: 10.251.106.10:50010 is added to blk_-1633451012039995780 size 67108864
081110 011612 4985 INFO dfs.DataNode$PacketResponder: PacketResponder 0 for block blk_-1633451012039995780 terminating
081110 011612 4985 INFO dfs.DataNode$PacketResponder: Received block blk_-1633451012039995780 of size 67108864 from /10.251.107.196
081110 011612 5240 INFO dfs.DataNode$PacketResponder: PacketResponder 1 for block blk_-1633451012039995780 terminating
081110 011612 5240 INFO dfs.DataNode$PacketResponder: Received block blk_-1633451012039995780 of size 67108864 from /10.250.7.96
081110 011613 33 INFO dfs.FSNamesystem: BLOCK* NameSystem.addStoredBlock: blockMap updated: 10.250.7.96:50010 is added to blk_-1633451012039995780 size 67108864
081110 011613 5337 INFO dfs.DataNode$PacketResponder: PacketResponder 2 for block blk_-1633451012039995780 terminating
081110 011613 5337 INFO dfs.DataNode$PacketResponder: Received block blk_-1633451012039995780 of size 67108864 from /10.250.7.96
081110 011616 29 INFO dfs.FSNamesystem: BLOCK* NameSystem.allocateBlock: /user/root/randtxt/_temporary/_task_200811092030_0003_m_000495_0/part-00495. blk_-4271308323172675773
081110 011616 5269 INFO dfs.DataNode$DataXceiver: Receiving block blk_-4271308323172675773 src: /10.251.42.246:46012 dest: /10.251.42.246:50010
081110 011617 5253 INFO dfs.DataNode$DataXceiver: Receiving block blk_-4271308323172675773 src: /10.251.42.246:50797 dest: /10.251.42.246:50010
081110 011618 5265 INFO dfs.DataNode$DataXceiver: Receiving block blk_-4271308323172675773 src: /10.251.43.210:48210 dest: /10.251.43.210:50010
081110 011712 28 INFO dfs.FSNamesystem: BLOCK* NameSystem.addStoredBlock: blockMap updated: 10.251.42.246:50010 is added to blk_-4271308323172675773 size 67108864
081110 011712 30 INFO dfs.FSNamesystem: BLOCK* NameSystem.addStoredBlock: blockMap updated: 10.251.67.113:50010 is added to blk_-4271308323172675773 size 67108864
081110 011712 35 INFO dfs.FSNamesystem: BLOCK* NameSystem.addStoredBlock: blockMap updated: 10.251.43.210:50010 is added to blk_-4271308323172675773 size 67108864
081110 011712 5254 INFO dfs.DataNode$PacketResponder: PacketResponder 1 for block blk_-4271308323172675773 terminating
081110 011712 5254 INFO dfs.DataNode$PacketResponder: Received block blk_-4271308323172675773 of size 67108864 from /10.251.42.246
081110 011712 5266 INFO dfs.DataNode$PacketResponder: PacketResponder 0 for block blk_-4271308323172675773 terminating
081110 011712 5266 INFO dfs.DataNode$PacketResponder: Received block blk_-4271308323172675773 of size 67108864 from /10.251.43.210
081110 011712 5270 INFO dfs.DataNode$PacketResponder: PacketResponder 2 for block blk_-4271308323172675773 terminating
081110 011712 5270 INFO dfs.DataNode$PacketResponder: Received block blk_-4271308323172675773 of size 67108864 from /10.251.42.246
081110 011831 31 INFO dfs.FSNamesystem: BLOCK* NameSystem.allocateBlock: /user/root/randtxt/_temporary/_task_200811092030_0003_m_000525_0/part-00525. blk_-220175262582300342
081110 011831 5385 INFO dfs.DataNode$DataXceiver: Receiving block blk_-220175262582300342 src: /10.251.67.4:44861 dest: /10.251.67.4:50010
081110 011832 5290 INFO dfs.DataNode$DataXceiver: Receiving block blk_-220175262582300342 src: /10.251.67.4:51319 dest: /10.251.67.4:50010
081110 011833 5354 INFO dfs.DataNode$DataXceiver: Receiving block blk_-220175262582300342 src: /10.251.71.16:44202 dest: /10.251.71.16:50010
081110 011847 29 INFO dfs.FSNamesystem: BLOCK* NameSystem.allocateBlock: /user/root/randtxt/_temporary/_task_200811092030_0003_m_000496_0/part-00496. blk_-5215602110704192211
081110 011847 5362 INFO dfs.DataNode$DataXceiver: Receiving block blk_-5215602110704192211 src: /10.251.38.53:34787 dest: /10.251.38.53:50010
081110 011848 5375 INFO dfs.DataNode$DataXceiver: Receiving block blk_-5215602110704192211 src: /10.251.38.53:52035 dest: /10.251.38.53:50010
081110 011849 5249 INFO dfs.DataNode$DataXceiver: Receiving block blk_-5215602110704192211 src: /10.251.122.79:59671 dest: /10.251.122.79:50010
081110 011925 27 INFO dfs.FSNamesystem: BLOCK* NameSystem.addStoredBlock: blockMap updated: 10.251.125.193:50010 is added to blk_-5215602110704192211 size 67108864
081110 011925 27 INFO dfs.FSNamesystem: BLOCK* NameSystem.addStoredBlock: blockMap updated: 10.251.214.112:50010 is added to blk_-220175262582300342 size 67108864
081110 011925 29 INFO dfs.FSNamesystem: BLOCK* NameSystem.addStoredBlock: blockMap updated: 10.251.122.79:50010 is added to blk_-5215602110704192211 size 67108864
081110 011925 31 INFO dfs.FSNamesystem: BLOCK* NameSystem.addStoredBlock: blockMap updated: 10.251.71.16:50010 is added to blk_-220175262582300342 size 67108864
081110 011925 32 INFO dfs.FSNamesystem: BLOCK* NameSystem.addStoredBlock: blockMap updated: 10.251.38.53:50010 is added to blk_-5215602110704192211 size 67108864
081110 011925 5250 INFO dfs.DataNode$PacketResponder: PacketResponder 0 for block blk_-5215602110704192211 terminating
081110 011925 5250 INFO dfs.DataNode$PacketResponder: Received block blk_-5215602110704192211 of size 67108864 from /10.251.122.79
081110 011925 5292 INFO dfs.DataNode$PacketResponder: PacketResponder 1 for block blk_-220175262582300342 terminating
081110 011925 5292 INFO dfs.DataNode$PacketResponder: Received block blk_-220175262582300342 of size 67108864 from /10.251.67.4
081110 011925 5355 INFO dfs.DataNode$PacketResponder: PacketResponder 0 for block blk_-220175262582300342 terminating
081110 011925 5355 INFO dfs.DataNode$PacketResponder: Received block blk_-220175262582300342 of size 67108864 from /10.251.71.16
081110 011925 5364 INFO dfs.DataNode$PacketResponder: PacketResponder 2 for block blk_-5215602110704192211 terminating
081110 011925 5364 INFO dfs.DataNode$PacketResponder: Received block blk_-5215602110704192211 of size 67108864 from /10.251.38.53
081110 011925 5376 INFO dfs.DataNode$PacketResponder: PacketResponder 1 for block blk_-5215602110704192211 terminating
081110 011925 5376 INFO dfs.DataNode$PacketResponder: Received block blk_-5215602110704192211 of size 67108864 from /10.251.38.53
081110 011925 5388 INFO dfs.DataNode$PacketResponder: PacketResponder 2 for block blk_-220175262582300342 terminating
081110 011925 5388 INFO dfs.DataNode$PacketResponder: Received block blk_-220175262582300342 of size 67108864 from /10.251.67.4
081110 011926 26 INFO dfs.FSNamesystem: BLOCK* NameSystem.addStoredBlock: blockMap updated: 10.251.67.4:50010 is added to blk_-220175262582300342 size 67108864
081110 012840 26 INFO dfs.FSNamesystem: BLOCK* NameSystem.allocateBlock: /user/root/randtxt/_temporary/_task_200811092030_0003_m_001123_0/part-01123. blk_6646294237022164757
081110 012840 5580 INFO dfs.DataNode$DataXceiver: Receiving block blk_6646294237022164757 src: /10.251.90.81:36114 dest: /10.251.90.81:50010
081110 012840 5611 INFO dfs.DataNode$DataXceiver: Receiving block blk_6646294237022164757 src: /10.251.90.81:52392 dest: /10.251.90.81:50010
081110 012840 5648 INFO dfs.DataNode$DataXceiver: Receiving block blk_6646294237022164757 src: /10.251.126.5:44735 dest: /10.251.126.5:50010
081110 012912 29 INFO dfs.FSNamesystem: BLOCK* NameSystem.addStoredBlock: blockMap updated: 10.251.90.81:50010 is added to blk_6646294237022164757 size 67108864
081110 012912 32 INFO dfs.FSNamesystem: BLOCK* NameSystem.addStoredBlock: blockMap updated: 10.250.5.237:50010 is added to blk_6646294237022164757 size 67108864
081110 012912 35 INFO dfs.FSNamesystem: BLOCK* NameSystem.addStoredBlock: blockMap updated: 10.251.126.5:50010 is added to blk_6646294237022164757 size 67108864
081110 012912 5581 INFO dfs.DataNode$PacketResponder: PacketResponder 1 for block blk_6646294237022164757 terminating
081110 012912 5581 INFO dfs.DataNode$PacketResponder: Received block blk_6646294237022164757 of size 67108864 from /10.251.90.81
081110 012912 5612 INFO dfs.DataNode$PacketResponder: PacketResponder 2 for block blk_6646294237022164757 terminating
081110 012912 5612 INFO dfs.DataNode$PacketResponder: Received block blk_6646294237022164757 of size 67108864 from /10.251.90.81
081110 012912 5649 INFO dfs.DataNode$PacketResponder: PacketResponder 0 for block blk_6646294237022164757 terminating
081110 012912 5649 INFO dfs.DataNode$PacketResponder: Received block blk_6646294237022164757 of size 67108864 from /10.251.126.5
081110 012949 32 INFO dfs.FSNamesystem: BLOCK* NameSystem.allocateBlock: /user/root/randtxt/_temporary/_task_200811092030_0003_m_000920_0/part-00920. blk_-7361649090621909132
081110 012949 5583 INFO dfs.DataNode$DataXceiver: Receiving block blk_-7361649090621909132 src: /10.250.15.101:34899 dest: /10.250.15.101:50010
081110 012949 5642 INFO dfs.DataNode$DataXceiver: Receiving block blk_-7361649090621909132 src: /10.250.15.101:41648 dest: /10.250.15.101:50010
081110 012949 5653 INFO dfs.DataNode$DataXceiver: Receiving block blk_-7361649090621909132 src: /10.251.123.99:46589 dest: /10.251.123.99:50010
081110 013027 35 INFO dfs.FSNamesystem: BLOCK* NameSystem.allocateBlock: /user/root/randtxt/_temporary/_task_200811092030_0003_m_000917_0/part-00917. blk_3708822198215730921
081110 013027 5162 INFO dfs.DataNode$DataXceiver: Receiving block blk_3708822198215730921 src: /10.251.43.147:47820 dest: /10.251.43.147:50010
081110 013027 5471 INFO dfs.DataNode$DataXceiver: Receiving block blk_3708822198215730921 src: /10.250.15.67:42685 dest: /10.250.15.67:50010
081110 013027 5563 INFO dfs.DataNode$DataXceiver: Receiving block blk_3708822198215730921 src: /10.250.15.67:57409 dest: /10.250.15.67:50010
081110 013039 5654 INFO dfs.DataNode$PacketResponder: PacketResponder 0 for block blk_-7361649090621909132 terminating
081110 013039 5654 INFO dfs.DataNode$PacketResponder: Received block blk_-7361649090621909132 of size 67108864 from /10.251.123.99
081110 013040 33 INFO dfs.FSNamesystem: BLOCK* NameSystem.addStoredBlock: blockMap updated: 10.251.199.159:50010 is added to blk_-7361649090621909132 size 67108864
081110 013044 29 INFO dfs.FSNamesystem: BLOCK* NameSystem.addStoredBlock: blockMap updated: 10.250.15.101:50010 is added to blk_-7361649090621909132 size 67108864
081110 013044 33 INFO dfs.FSNamesystem: BLOCK* NameSystem.addStoredBlock: blockMap updated: 10.251.123.99:50010 is added to blk_-7361649090621909132 size 67108864
081110 013044 5584 INFO dfs.DataNode$PacketResponder: PacketResponder 2 for block blk_-7361649090621909132 terminating
081110 013044 5584 INFO dfs.DataNode$PacketResponder: Received block blk_-7361649090621909132 of size 67108864 from /10.250.15.101
081110 013044 5643 INFO dfs.DataNode$PacketResponder: PacketResponder 1 for block blk_-7361649090621909132 terminating
081110 013044 5643 INFO dfs.DataNode$PacketResponder: Received block blk_-7361649090621909132 of size 67108864 from /10.250.15.101
081110 013306 26 INFO dfs.FSNamesystem: BLOCK* NameSystem.addStoredBlock: blockMap updated: 10.251.107.50:50010 is added to blk_3708822198215730921 size 67108864
081110 013306 31 INFO dfs.FSNamesystem: BLOCK* NameSystem.addStoredBlock: blockMap updated: 10.250.15.67:50010 is added to blk_3708822198215730921 size 67108864
081110 013306 32 INFO dfs.FSNamesystem: BLOCK* NameSystem.addStoredBlock: blockMap updated: 10.251.43.147:50010 is added to blk_3708822198215730921 size 67108864
081110 013306 5163 INFO dfs.DataNode$PacketResponder: PacketResponder 0 for block blk_3708822198215730921 terminating
081110 013306 5163 INFO dfs.DataNode$PacketResponder: Received block blk_3708822198215730921 of size 67108864 from /10.251.43.147
081110 013306 5472 INFO dfs.DataNode$PacketResponder: PacketResponder 2 for block blk_3708822198215730921 terminating
081110 013306 5472 INFO dfs.DataNode$PacketResponder: Received block blk_3708822198215730921 of size 67108864 from /10.250.15.67
081110 013306 5564 INFO dfs.DataNode$PacketResponder: PacketResponder 1 for block blk_3708822198215730921 terminating
081110 013306 5564 INFO dfs.DataNode$PacketResponder: Received block blk_3708822198215730921 of size 67108864 from /10.250.15.67
081110 014229 26 INFO dfs.FSNamesystem: BLOCK* NameSystem.allocateBlock: /user/root/randtxt/_temporary/_task_200811092030_0003_m_001417_0/part-01417. blk_-2001624183693917609
081110 014229 5523 INFO dfs.DataNode$DataXceiver: Receiving block blk_-2001624183693917609 src: /10.251.75.143:41945 dest: /10.251.75.143:50010
081110 014229 5882 INFO dfs.DataNode$DataXceiver: Receiving block blk_-2001624183693917609 src: /10.251.75.143:53624 dest: /10.251.75.143:50010
081110 014230 5716 INFO dfs.DataNode$DataXceiver: Receiving block blk_-2001624183693917609 src: /10.251.123.132:38608 dest: /10.251.123.132:50010
081110 014325 31 INFO dfs.FSNamesystem: BLOCK* NameSystem.addStoredBlock: blockMap updated: 10.251.75.143:50010 is added to blk_-2001624183693917609 size 67108864
081110 014325 34 INFO dfs.FSNamesystem: BLOCK* NameSystem.addStoredBlock: blockMap updated: 10.251.194.129:50010 is added to blk_-2001624183693917609 size 67108864
081110 014325 35 INFO dfs.FSNamesystem: BLOCK* NameSystem.addStoredBlock: blockMap updated: 10.251.123.132:50010 is added to blk_-2001624183693917609 size 67108864
081110 014325 5524 INFO dfs.DataNode$PacketResponder: PacketResponder 1 for block blk_-2001624183693917609 terminating
081110 014325 5524 INFO dfs.DataNode$PacketResponder: Received block blk_-2001624183693917609 of size 67108864 from /10.251.75.143
081110 014325 5719 INFO dfs.DataNode$PacketResponder: PacketResponder 0 for block blk_-2001624183693917609 terminating
081110 014325 5719 INFO dfs.DataNode$PacketResponder: Received block blk_-2001624183693917609 of size 67108864 from /10.251.123.132
081110 014325 5884 INFO dfs.DataNode$PacketResponder: PacketResponder 2 for block blk_-2001624183693917609 terminating
081110 014325 5884 INFO dfs.DataNode$PacketResponder: Received block blk_-2001624183693917609 of size 67108864 from /10.251.75.143
081110 015043 32 INFO dfs.FSNamesystem: BLOCK* NameSystem.allocateBlock: /user/root/randtxt/_temporary/_task_200811092030_0003_m_001448_0/part-01448. blk_5465158673602396669
081110 015044 5786 INFO dfs.DataNode$DataXceiver: Receiving block blk_5465158673602396669 src: /10.251.194.102:42734 dest: /10.251.194.102:50010
081110 015044 5906 INFO dfs.DataNode$DataXceiver: Receiving block blk_5465158673602396669 src: /10.251.125.174:38367 dest: /10.251.125.174:50010
081110 015044 5976 INFO dfs.DataNode$DataXceiver: Receiving block blk_5465158673602396669 src: /10.251.125.174:49410 dest: /10.251.125.174:50010
081110 015125 26 INFO dfs.FSNamesystem: BLOCK* NameSystem.addStoredBlock: blockMap updated: 10.251.125.174:50010 is added to blk_5465158673602396669 size 67108864
081110 015125 30 INFO dfs.FSNamesystem: BLOCK* NameSystem.addStoredBlock: blockMap updated: 10.251.42.9:50010 is added to blk_5465158673602396669 size 67108864
081110 015125 33 INFO dfs.FSNamesystem: BLOCK* NameSystem.addStoredBlock: blockMap updated: 10.251.194.102:50010 is added to blk_5465158673602396669 size 67108864
081110 015125 5787 INFO dfs.DataNode$PacketResponder: PacketResponder 0 for block blk_5465158673602396669 terminating
081110 015125 5787 INFO dfs.DataNode$PacketResponder: Received block blk_5465158673602396669 of size 67108864 from /10.251.194.102
081110 015125 5909 INFO dfs.DataNode$PacketResponder: PacketResponder 2 for block blk_5465158673602396669 terminating
081110 015125 5909 INFO dfs.DataNode$PacketResponder: Received block blk_5465158673602396669 of size 67108864 from /10.251.125.174
081110 015125 5977 INFO dfs.DataNode$PacketResponder: PacketResponder 1 for block blk_5465158673602396669 terminating
081110 015125 5977 INFO dfs.DataNode$PacketResponder: Received block blk_5465158673602396669 of size 67108864 from /10.251.125.174
081110 015141 33 INFO dfs.FSNamesystem: BLOCK* NameSystem.allocateBlock: /user/root/randtxt/_temporary/_task_200811092030_0003_m_001730_0/part-01730. blk_8739792171471203455
081110 015141 5977 INFO dfs.DataNode$DataXceiver: Receiving block blk_8739792171471203455 src: /10.251.67.225:43873 dest: /10.251.67.225:50010
081110 015141 6047 INFO dfs.DataNode$DataXceiver: Receiving block blk_8739792171471203455 src: /10.251.66.192:44422 dest: /10.251.66.192:50010
081110 015141 6053 INFO dfs.DataNode$DataXceiver: Receiving block blk_8739792171471203455 src: /10.251.67.225:41912 dest: /10.251.67.225:50010
081110 015215 27 INFO dfs.FSNamesystem: BLOCK* NameSystem.addStoredBlock: blockMap updated: 10.250.10.176:50010 is added to blk_8739792171471203455 size 67108864
081110 015215 27 INFO dfs.FSNamesystem: BLOCK* NameSystem.addStoredBlock: blockMap updated: 10.251.66.192:50010 is added to blk_8739792171471203455 size 67108864
081110 015215 34 INFO dfs.FSNamesystem: BLOCK* NameSystem.addStoredBlock: blockMap updated: 10.251.67.225:50010 is added to blk_8739792171471203455 size 67108864
081110 015215 5978 INFO dfs.DataNode$PacketResponder: PacketResponder 1 for block blk_8739792171471203455 terminating
081110 015215 5978 INFO dfs.DataNode$PacketResponder: Received block blk_8739792171471203455 of size 67108864 from /10.251.67.225
081110 015215 6048 INFO dfs.DataNode$PacketResponder: PacketResponder 0 for block blk_8739792171471203455 terminating
081110 015215 6048 INFO dfs.DataNode$PacketResponder: Received block blk_8739792171471203455 of size 67108864 from /10.251.66.192
081110 015215 6054 INFO dfs.DataNode$PacketResponder: PacketResponder 2 for block blk_8739792171471203455 terminating
081110 015215 6054 INFO dfs.DataNode$PacketResponder: Received block blk_8739792171471203455 of size 67108864 from /10.251.67.225
081110 021407 13 INFO dfs.DataBlockScanner: Verification succeeded for blk_3844581002541250978
081110 021415 6094 INFO dfs.DataNode$DataXceiver: 10.251.109.209:50010 Served block blk_8734648595969039069 to /10.251.109.209
081110 021615 6334 INFO dfs.DataNode$DataXceiver: 10.250.10.176:50010 Served block blk_8734648595969039069 to /10.251.214.130
081110 021945 6378 WARN dfs.DataNode$DataXceiver: 10.251.91.84:50010:Got exception while serving blk_8734648595969039069 to /10.251.43.21:
081110 022409 13 INFO dfs.DataBlockScanner: Verification succeeded for blk_-7361649090621909132
081110 022714 13 INFO dfs.DataBlockScanner: Verification succeeded for blk_-430901031854681295
081110 023813 6312 INFO dfs.DataNode$DataXceiver: 10.251.74.227:50010 Served block blk_-4407169605440420846 to /10.251.74.227
081110 024028 6452 INFO dfs.DataNode$DataXceiver: 10.250.10.176:50010 Served block blk_-4407169605440420846 to /10.250.10.176
081110 030641 6437 INFO dfs.DataNode$DataXceiver: 10.251.67.113:50010 Served block blk_-4271308323172675773 to /10.251.67.113
081110 030712 6482 INFO dfs.DataNode$DataXceiver: 10.251.38.53:50010 Served block blk_-5215602110704192211 to /10.251.203.4
081110 030743 6525 INFO dfs.DataNode$DataXceiver: 10.251.122.79:50010 Served block blk_-5215602110704192211 to /10.251.122.79
081110 030831 6526 WARN dfs.DataNode$DataXceiver: 10.251.122.79:50010:Got exception while serving blk_-5215602110704192211 to /10.251.122.79:
081110 030922 6438 INFO dfs.DataNode$DataXceiver: 10.251.67.113:50010 Served block blk_-4271308323172675773 to /10.251.66.3
081110 030959 6443 WARN dfs.DataNode$DataXceiver: 10.251.42.246:50010:Got exception while serving blk_-4271308323172675773 to /10.251.42.246:
081110 031044 6487 INFO dfs.DataNode$DataXceiver: 10.251.214.112:50010 Served block blk_-220175262582300342 to /10.251.214.112
081110 031217 6482 INFO dfs.DataNode$DataXceiver: 10.251.214.112:50010 Served block blk_-220175262582300342 to /10.251.66.63
081110 031303 6546 WARN dfs.DataNode$DataXceiver: 10.251.67.4:50010:Got exception while serving blk_-220175262582300342 to /10.251.26.8:
081110 033414 6280 INFO dfs.DataNode$DataXceiver: 10.251.106.10:50010 Served block blk_-1633451012039995780 to /10.251.106.10
081110 033611 6277 INFO dfs.DataNode$DataXceiver: 10.251.106.10:50010 Served block blk_-1633451012039995780 to /10.251.106.10
081110 035654 5973 INFO dfs.DataNode$DataXceiver: 10.251.107.50:50010 Served block blk_3708822198215730921 to /10.251.107.50
081110 035812 6742 INFO dfs.DataNode$DataXceiver: 10.251.199.159:50010 Served block blk_-7361649090621909132 to /10.251.199.159
081110 035851 6680 INFO dfs.DataNode$DataXceiver: 10.251.43.147:50010 Served block blk_3708822198215730921 to /10.251.126.227
081110 035905 6667 INFO dfs.DataNode$DataXceiver: 10.250.15.101:50010 Served block blk_-7361649090621909132 to /10.251.74.192
081110 040103 6695 WARN dfs.DataNode$DataXceiver: 10.251.43.147:50010:Got exception while serving blk_3708822198215730921 to /10.251.111.209:
081110 040143 6697 WARN dfs.DataNode$DataXceiver: 10.250.15.101:50010:Got exception while serving blk_-7361649090621909132 to /10.251.215.70:
081110 040652 13 INFO dfs.DataBlockScanner: Verification succeeded for blk_1075002162913718819
081110 042355 6770 INFO dfs.DataNode$DataXceiver: 10.251.126.5:50010 Served block blk_6646294237022164757 to /10.251.126.5
081110 042557 6779 WARN dfs.DataNode$DataXceiver: 10.251.126.5:50010:Got exception while serving blk_6646294237022164757 to /10.250.13.240:
081110 042651 6880 INFO dfs.DataNode$DataXceiver: 10.250.5.237:50010 Served block blk_6646294237022164757 to /10.251.35.1
081110 044812 13 INFO dfs.DataBlockScanner: Verification succeeded for blk_4705285038953734978
081110 045736 6648 INFO dfs.DataNode$DataXceiver: 10.251.123.132:50010 Served block blk_-2001624183693917609 to /10.251.123.132
081110 050027 6822 WARN dfs.DataNode$DataXceiver: 10.251.194.129:50010:Got exception while serving blk_-2001624183693917609 to /10.251.73.188:
081110 050058 6816 INFO dfs.DataNode$DataXceiver: 10.251.194.129:50010 Served block blk_-2001624183693917609 to /10.250.17.177
081110 050129 6923 INFO dfs.DataNode$DataXceiver: 10.251.194.102:50010 Served block blk_5465158673602396669 to /10.251.194.102
081110 050304 6683 WARN dfs.DataNode$DataXceiver: 10.251.42.9:50010:Got exception while serving blk_5465158673602396669 to /10.251.107.50:
081110 050403 6829 INFO dfs.DataNode$DataXceiver: 10.251.125.174:50010 Served block blk_5465158673602396669 to /10.251.42.84
081110 051805 13 INFO dfs.DataBlockScanner: Verification succeeded for blk_5015382748364055161
081110 053613 7140 INFO dfs.DataNode$DataXceiver: 10.250.10.176:50010 Served block blk_8739792171471203455 to /10.250.10.176
081110 053746 7147 WARN dfs.DataNode$DataXceiver: 10.250.10.176:50010:Got exception while serving blk_8739792171471203455 to /10.250.6.223:
081110 053904 7143 INFO dfs.DataNode$DataXceiver: 10.250.10.176:50010 Served block blk_8739792171471203455 to /10.250.17.177
081110 063355 13 INFO dfs.DataBlockScanner: Verification succeeded for blk_-5657847586075035586
081110 064153 13 INFO dfs.DataBlockScanner: Verification succeeded for blk_-430901031854681295
081110 065652 7154 INFO dfs.DataNode$DataXceiver: 10.251.109.209:50010 Served block blk_8734648595969039069 to /10.251.109.209
081110 065705 7413 WARN dfs.DataNode$DataXceiver: 10.250.10.176:50010:Got exception while serving blk_8734648595969039069 to /10.251.43.21:
081110 065711 7458 INFO dfs.DataNode$DataXceiver: 10.251.91.84:50010 Served block blk_8734648595969039069 to /10.250.17.177
081110 065920 7444 INFO dfs.DataNode$DataXceiver: 10.250.10.176:50010 Served block blk_-4407169605440420846 to /10.250.10.176
081110 065929 7445 INFO dfs.DataNode$DataXceiver: 10.250.10.176:50010 Served block blk_-4407169605440420846 to /10.250.10.176
081110 070257 7507 INFO dfs.DataNode$DataXceiver: 10.251.122.79:50010 Served block blk_-5215602110704192211 to /10.251.203.4
081110 070302 7409 INFO dfs.DataNode$DataXceiver: 10.251.67.113:50010 Served block blk_-4271308323172675773 to /10.251.67.113
081110 070306 7515 INFO dfs.DataNode$DataXceiver: 10.251.122.79:50010 Served block blk_-5215602110704192211 to /10.251.122.79
081110 070311 7441 WARN dfs.DataNode$DataXceiver: 10.251.42.246:50010:Got exception while serving blk_-4271308323172675773 to /10.251.91.229:
081110 070318 7432 INFO dfs.DataNode$DataXceiver: 10.251.42.246:50010 Served block blk_-4271308323172675773 to /10.251.66.3
081110 070321 7469 INFO dfs.DataNode$DataXceiver: 10.251.214.112:50010 Served block blk_-220175262582300342 to /10.251.66.63
081110 070324 7399 WARN dfs.DataNode$DataXceiver: 10.251.125.193:50010:Got exception while serving blk_-5215602110704192211 to /10.251.70.5:
081110 070331 7479 INFO dfs.DataNode$DataXceiver: 10.251.214.112:50010 Served block blk_-220175262582300342 to /10.251.214.112
081110 070336 7481 WARN dfs.DataNode$DataXceiver: 10.251.214.112:50010:Got exception while serving blk_-220175262582300342 to /10.251.26.8:
081110 070615 7226 INFO dfs.DataNode$DataXceiver: 10.251.106.10:50010 Served block blk_-1633451012039995780 to /10.251.106.10
081110 070615 7228 INFO dfs.DataNode$DataXceiver: 10.251.106.10:50010 Served block blk_-1633451012039995780 to /10.251.106.10
081110 070851 7609 INFO dfs.DataNode$DataXceiver: 10.251.199.159:50010 Served block blk_-7361649090621909132 to /10.251.199.159
081110 070904 7583 INFO dfs.DataNode$DataXceiver: 10.251.43.147:50010 Served block blk_3708822198215730921 to /10.251.43.147
081110 070909 7617 INFO dfs.DataNode$DataXceiver: 10.251.123.99:50010 Served block blk_-7361649090621909132 to /10.251.74.192
081110 070910 7475 INFO dfs.DataNode$DataXceiver: 10.250.15.67:50010 Served block blk_3708822198215730921 to /10.251.126.227
081110 070921 7639 WARN dfs.DataNode$DataXceiver: 10.251.123.99:50010:Got exception while serving blk_-7361649090621909132 to /10.250.11.85:
081110 070941 7502 WARN dfs.DataNode$DataXceiver: 10.250.15.67:50010:Got exception while serving blk_3708822198215730921 to /10.251.111.209:
081110 071205 7716 INFO dfs.DataNode$DataXceiver: 10.251.90.81:50010 Served block blk_6646294237022164757 to /10.251.90.81
081110 071218 7723 INFO dfs.DataNode$DataXceiver: 10.250.5.237:50010 Served block blk_6646294237022164757 to /10.251.35.1
081110 071240 7737 WARN dfs.DataNode$DataXceiver: 10.250.5.237:50010:Got exception while serving blk_6646294237022164757 to /10.250.13.240:
081110 071602 7593 INFO dfs.DataNode$DataXceiver: 10.251.194.129:50010 Served block blk_-2001624183693917609 to /10.251.194.129
081110 071620 7449 WARN dfs.DataNode$DataXceiver: 10.251.123.132:50010:Got exception while serving blk_-2001624183693917609 to /10.251.73.188:
081110 071630 7470 WARN dfs.DataNode$DataXceiver: 10.251.42.9:50010:Got exception while serving blk_5465158673602396669 to /10.251.107.50:
081110 071643 7713 INFO dfs.DataNode$DataXceiver: 10.251.194.102:50010 Served block blk_5465158673602396669 to /10.251.194.102
081110 071646 7706 INFO dfs.DataNode$DataXceiver: 10.251.194.102:50010 Served block blk_5465158673602396669 to /10.251.42.84
081110 071646 7773 INFO dfs.DataNode$DataXceiver: 10.251.75.143:50010 Served block blk_-2001624183693917609 to /10.251.75.143
081110 072047 7759 WARN dfs.DataNode$DataXceiver: 10.251.66.192:50010:Got exception while serving blk_8739792171471203455 to /10.250.6.223:
081110 072058 7832 INFO dfs.DataNode$DataXceiver: 10.250.10.176:50010 Served block blk_8739792171471203455 to /10.250.10.176
081110 072113 7763 INFO dfs.DataNode$DataXceiver: 10.251.66.192:50010 Served block blk_8739792171471203455 to /10.251.121.224
081110 080522 7810 INFO dfs.DataNode$DataXceiver: 10.251.109.209:50010 Served block blk_8734648595969039069 to /10.251.109.209
081110 080548 8098 INFO dfs.DataNode$DataXceiver: 10.251.91.84:50010 Served block blk_8734648595969039069 to /10.250.17.177
081110 080551 8114 WARN dfs.DataNode$DataXceiver: 10.251.91.84:50010:Got exception while serving blk_8734648595969039069 to /10.251.91.84:
081110 080759 8071 INFO dfs.DataNode$DataXceiver: 10.250.10.176:50010 Served block blk_-4407169605440420846 to /10.250.10.176
081110 080803 7979 INFO dfs.DataNode$DataXceiver: 10.251.74.227:50010 Served block blk_-4407169605440420846 to /10.251.74.227
081110 081121 8140 INFO dfs.DataNode$DataXceiver: 10.251.122.79:50010 Served block blk_-5215602110704192211 to /10.251.203.4
081110 081127 8028 INFO dfs.DataNode$DataXceiver: 10.251.67.113:50010 Served block blk_-4271308323172675773 to /10.251.67.113
081110 081133 8148 INFO dfs.DataNode$DataXceiver: 10.251.122.79:50010 Served block blk_-5215602110704192211 to /10.251.122.79
081110 081137 8053 WARN dfs.DataNode$DataXceiver: 10.251.43.210:50010:Got exception while serving blk_-4271308323172675773 to /10.251.91.229:
081110 081138 8150 WARN dfs.DataNode$DataXceiver: 10.251.122.79:50010:Got exception while serving blk_-5215602110704192211 to /10.251.70.5:
081110 081146 8072 INFO dfs.DataNode$DataXceiver: 10.251.42.246:50010 Served block blk_-4271308323172675773 to /10.251.42.246
081110 081148 8121 INFO dfs.DataNode$DataXceiver: 10.251.214.112:50010 Served block blk_-220175262582300342 to /10.251.214.112
081110 081155 8125 WARN dfs.DataNode$DataXceiver: 10.251.214.112:50010:Got exception while serving blk_-220175262582300342 to /10.251.67.211:
081110 081220 8088 INFO dfs.DataNode$DataXceiver: 10.251.67.4:50010 Served block blk_-220175262582300342 to /10.251.66.63
081110 081434 7873 INFO dfs.DataNode$DataXceiver: 10.251.106.10:50010 Served block blk_-1633451012039995780 to /10.251.106.10
081110 081437 7875 INFO dfs.DataNode$DataXceiver: 10.251.106.10:50010 Served block blk_-1633451012039995780 to /10.251.106.10
081110 081707 8198 INFO dfs.DataNode$DataXceiver: 10.251.43.147:50010 Served block blk_3708822198215730921 to /10.251.43.147
081110 081728 8118 WARN dfs.DataNode$DataXceiver: 10.250.15.67:50010:Got exception while serving blk_3708822198215730921 to /10.251.111.209:
081110 081728 8184 WARN dfs.DataNode$DataXceiver: 10.250.15.101:50010:Got exception while serving blk_-7361649090621909132 to /10.251.215.70:
081110 081728 8229 INFO dfs.DataNode$DataXceiver: 10.251.123.99:50010 Served block blk_-7361649090621909132 to /10.251.123.99
081110 081731 8200 INFO dfs.DataNode$DataXceiver: 10.251.43.147:50010 Served block blk_3708822198215730921 to /10.251.126.227
081110 081759 8181 INFO dfs.DataNode$DataXceiver: 10.250.15.101:50010 Served block blk_-7361649090621909132 to /10.251.127.191
081110 082018 8383 INFO dfs.DataNode$DataXceiver: 10.251.90.81:50010 Served block blk_6646294237022164757 to /10.251.90.81
081110 082056 8381 INFO dfs.DataNode$DataXceiver: 10.251.90.81:50010 Served block blk_6646294237022164757 to /10.251.31.180
081110 082058 8400 WARN dfs.DataNode$DataXceiver: 10.251.90.81:50010:Got exception while serving blk_6646294237022164757 to /10.251.111.130:
081110 082413 8218 INFO dfs.DataNode$DataXceiver: 10.251.194.129:50010 Served block blk_-2001624183693917609 to /10.251.194.129
081110 082414 13 INFO dfs.DataBlockScanner: Verification succeeded for blk_-3212161715547945852
081110 082441 8060 INFO dfs.DataNode$DataXceiver: 10.251.123.132:50010 Served block blk_-2001624183693917609 to /10.250.17.177
081110 082443 8227 WARN dfs.DataNode$DataXceiver: 10.251.194.129:50010:Got exception while serving blk_-2001624183693917609 to /10.251.73.188:
081110 082458 8269 INFO dfs.DataNode$DataXceiver: 10.251.125.174:50010 Served block blk_5465158673602396669 to /10.251.42.84
081110 082502 8341 INFO dfs.DataNode$DataXceiver: 10.251.194.102:50010 Served block blk_5465158673602396669 to /10.251.194.102
081110 082504 8342 WARN dfs.DataNode$DataXceiver: 10.251.194.102:50010:Got exception while serving blk_5465158673602396669 to /10.251.107.50:
081110 082901 8374 INFO dfs.DataNode$DataXceiver: 10.251.66.192:50010 Served block blk_8739792171471203455 to /10.251.121.224
081110 082911 8542 WARN dfs.DataNode$DataXceiver: 10.251.67.225:50010:Got exception while serving blk_8739792171471203455 to /10.250.6.223:
081110 082911 8543 INFO dfs.DataNode$DataXceiver: 10.251.67.225:50010 Served block blk_8739792171471203455 to /10.251.67.225
081110 091316 8437 INFO dfs.DataNode$DataXceiver: 10.251.109.209:50010 Served block blk_8734648595969039069 to /10.251.109.209
081110 091352 8689 INFO dfs.DataNode$DataXceiver: 10.250.10.176:50010 Served block blk_8734648595969039069 to /10.251.214.130
081110 091355 8706 WARN dfs.DataNode$DataXceiver: 10.250.10.176:50010:Got exception while serving blk_8734648595969039069 to /10.251.43.21:
081110 091759 8737 INFO dfs.DataNode$DataXceiver: 10.250.10.176:50010 Served block blk_-4407169605440420846 to /10.250.10.176
081110 091759 8804 INFO dfs.DataNode$DataXceiver: 10.251.31.85:50010 Served block blk_-4407169605440420846 to /10.251.31.85
081110 092524 13 INFO dfs.DataBlockScanner: Verification succeeded for blk_3142006747336250276
081110 092626 8809 INFO dfs.DataNode$DataXceiver: 10.251.38.53:50010 Served block blk_-5215602110704192211 to /10.251.203.4
081110 092630 8647 INFO dfs.DataNode$DataXceiver: 10.251.67.113:50010 Served block blk_-4271308323172675773 to /10.251.67.113
081110 092638 8734 WARN dfs.DataNode$DataXceiver: 10.251.42.246:50010:Got exception while serving blk_-4271308323172675773 to /10.251.42.246:
081110 092650 8682 INFO dfs.DataNode$DataXceiver: 10.251.43.210:50010 Served block blk_-4271308323172675773 to /10.251.66.3
081110 092651 8811 INFO dfs.DataNode$DataXceiver: 10.251.122.79:50010 Served block blk_-5215602110704192211 to /10.251.122.79
081110 092652 8810 WARN dfs.DataNode$DataXceiver: 10.251.122.79:50010:Got exception while serving blk_-5215602110704192211 to /10.251.70.5:
081110 092734 8770 INFO dfs.DataNode$DataXceiver: 10.251.214.112:50010 Served block blk_-220175262582300342 to /10.251.214.112
081110 092742 8822 INFO dfs.DataNode$DataXceiver: 10.251.71.16:50010 Served block blk_-220175262582300342 to /10.251.66.63
081110 092757 8773 WARN dfs.DataNode$DataXceiver: 10.251.214.112:50010:Got exception while serving blk_-220175262582300342 to /10.251.26.8:
081110 093446 8543 INFO dfs.DataNode$DataXceiver: 10.251.106.10:50010 Served block blk_-1633451012039995780 to /10.251.106.10
081110 093458 8544 INFO dfs.DataNode$DataXceiver: 10.251.106.10:50010 Served block blk_-1633451012039995780 to /10.251.106.10
081110 094306 13 INFO dfs.DataBlockScanner: Verification succeeded for blk_4114836081645547113
081110 094307 13 INFO dfs.DataBlockScanner: Verification succeeded for blk_-1902726151610118593
081110 094310 7816 INFO dfs.DataNode$DataXceiver: 10.251.107.50:50010 Served block blk_3708822198215730921 to /10.251.107.50
081110 094310 8861 INFO dfs.DataNode$DataXceiver: 10.251.199.159:50010 Served block blk_-7361649090621909132 to /10.251.74.192
081110 094331 8928 WARN dfs.DataNode$DataXceiver: 10.251.43.147:50010:Got exception while serving blk_3708822198215730921 to /10.251.214.18:
081110 094343 8773 INFO dfs.DataNode$DataXceiver: 10.250.15.67:50010 Served block blk_3708822198215730921 to /10.251.126.227
081110 094343 8866 INFO dfs.DataNode$DataXceiver: 10.251.199.159:50010 Served block blk_-7361649090621909132 to /10.251.199.159
081110 094427 8908 WARN dfs.DataNode$DataXceiver: 10.251.123.99:50010:Got exception while serving blk_-7361649090621909132 to /10.251.215.70:
081110 095748 13 INFO dfs.DataBlockScanner: Verification succeeded for blk_3844581002541250978
081110 100855 13 INFO dfs.DataBlockScanner: Verification succeeded for blk_621880599685510000
081110 103026 34 INFO dfs.FSNamesystem: BLOCK* NameSystem.delete: blk_8734648595969039069 is added to invalidSet of 10.250.10.176:50010
081110 103026 34 INFO dfs.FSNamesystem: BLOCK* NameSystem.delete: blk_8734648595969039069 is added to invalidSet of 10.251.109.209:50010
081110 103026 34 INFO dfs.FSNamesystem: BLOCK* NameSystem.delete: blk_8734648595969039069 is added to invalidSet of 10.251.91.84:50010
081110 103028 34 INFO dfs.FSNamesystem: BLOCK* NameSystem.delete: blk_-4407169605440420846 is added to invalidSet of 10.250.10.176:50010
081110 103028 34 INFO dfs.FSNamesystem: BLOCK* NameSystem.delete: blk_-4407169605440420846 is added to invalidSet of 10.251.31.85:50010
081110 103028 34 INFO dfs.FSNamesystem: BLOCK* NameSystem.delete: blk_-4407169605440420846 is added to invalidSet of 10.251.74.227:50010
081110 103031 34 INFO dfs.FSNamesystem: BLOCK* NameSystem.delete: blk_-4271308323172675773 is added to invalidSet of 10.251.42.246:50010
081110 103031 34 INFO dfs.FSNamesystem: BLOCK* NameSystem.delete: blk_-4271308323172675773 is added to invalidSet of 10.251.43.210:50010
081110 103031 34 INFO dfs.FSNamesystem: BLOCK* NameSystem.delete: blk_-4271308323172675773 is added to invalidSet of 10.251.67.113:50010
081110 103031 34 INFO dfs.FSNamesystem: BLOCK* NameSystem.delete: blk_-5215602110704192211 is added to invalidSet of 10.251.122.79:50010
081110 103031 34 INFO dfs.FSNamesystem: BLOCK* NameSystem.delete: blk_-5215602110704192211 is added to invalidSet of 10.251.125.193:50010
081110 103031 34 INFO dfs.FSNamesystem: BLOCK* NameSystem.delete: blk_-5215602110704192211 is added to invalidSet of 10.251.38.53:50010
081110 103032 34 INFO dfs.FSNamesystem: BLOCK* NameSystem.delete: blk_-220175262582300342 is added to invalidSet of 10.251.214.112:50010
081110 103032 34 INFO dfs.FSNamesystem: BLOCK* NameSystem.delete: blk_-220175262582300342 is added to invalidSet of 10.251.67.4:50010
081110 103032 34 INFO dfs.FSNamesystem: BLOCK* NameSystem.delete: blk_-220175262582300342 is added to invalidSet of 10.251.71.16:50010
081110 103034 34 INFO dfs.FSNamesystem: BLOCK* NameSystem.delete: blk_-1633451012039995780 is added to invalidSet of 10.250.7.96:50010
081110 103034 34 INFO dfs.FSNamesystem: BLOCK* NameSystem.delete: blk_-1633451012039995780 is added to invalidSet of 10.251.106.10:50010
081110 103034 34 INFO dfs.FSNamesystem: BLOCK* NameSystem.delete: blk_-1633451012039995780 is added to invalidSet of 10.251.107.196:50010
081110 103037 34 INFO dfs.FSNamesystem: BLOCK* NameSystem.delete: blk_3708822198215730921 is added to invalidSet of 10.250.15.67:50010
081110 103037 34 INFO dfs.FSNamesystem: BLOCK* NameSystem.delete: blk_3708822198215730921 is added to invalidSet of 10.251.107.50:50010
081110 103037 34 INFO dfs.FSNamesystem: BLOCK* NameSystem.delete: blk_3708822198215730921 is added to invalidSet of 10.251.43.147:50010
081110 103037 34 INFO dfs.FSNamesystem: BLOCK* NameSystem.delete: blk_-7361649090621909132 is added to invalidSet of 10.250.15.101:50010
081110 103037 34 INFO dfs.FSNamesystem: BLOCK* NameSystem.delete: blk_-7361649090621909132 is added to invalidSet of 10.251.123.99:50010
081110 103037 34 INFO dfs.FSNamesystem: BLOCK* NameSystem.delete: blk_-7361649090621909132 is added to invalidSet of 10.251.199.159:50010
081110 103039 34 INFO dfs.FSNamesystem: BLOCK* NameSystem.delete: blk_6646294237022164757 is added to invalidSet of 10.250.5.237:50010
081110 103039 34 INFO dfs.FSNamesystem: BLOCK* NameSystem.delete: blk_6646294237022164757 is added to invalidSet of 10.251.126.5:50010
081110 103039 34 INFO dfs.FSNamesystem: BLOCK* NameSystem.delete: blk_6646294237022164757 is added to invalidSet of 10.251.90.81:50010
081110 103043 34 INFO dfs.FSNamesystem: BLOCK* NameSystem.delete: blk_-2001624183693917609 is added to invalidSet of 10.251.123.132:50010
081110 103043 34 INFO dfs.FSNamesystem: BLOCK* NameSystem.delete: blk_-2001624183693917609 is added to invalidSet of 10.251.194.129:50010
081110 103043 34 INFO dfs.FSNamesystem: BLOCK* NameSystem.delete: blk_-2001624183693917609 is added to invalidSet of 10.251.75.143:50010
081110 103043 34 INFO dfs.FSNamesystem: BLOCK* NameSystem.delete: blk_5465158673602396669 is added to invalidSet of 10.251.125.174:50010
081110 103043 34 INFO dfs.FSNamesystem: BLOCK* NameSystem.delete: blk_5465158673602396669 is added to invalidSet of 10.251.194.102:50010
081110 103043 34 INFO dfs.FSNamesystem: BLOCK* NameSystem.delete: blk_5465158673602396669 is added to invalidSet of 10.251.42.9:50010
081110 103047 34 INFO dfs.FSNamesystem: BLOCK* NameSystem.delete: blk_8739792171471203455 is added to invalidSet of 10.250.10.176:50010
081110 103047 34 INFO dfs.FSNamesystem: BLOCK* NameSystem.delete: blk_8739792171471203455 is added to invalidSet of 10.251.66.192:50010
081110 103047 34 INFO dfs.FSNamesystem: BLOCK* NameSystem.delete: blk_8739792171471203455 is added to invalidSet of 10.251.67.225:50010
081110 103055 30 INFO dfs.FSNamesystem: BLOCK* NameSystem.delete: blk_4114836081645547113 is added to invalidSet of 10.250.6.191:50010
081110 103055 30 INFO dfs.FSNamesystem: BLOCK* NameSystem.delete: blk_4114836081645547113 is added to invalidSet of 10.251.30.85:50010
081110 103055 30 INFO dfs.FSNamesystem: BLOCK* NameSystem.delete: blk_4114836081645547113 is added to invalidSet of 10.251.70.5:50010
081110 103055 30 INFO dfs.FSNamesystem: BLOCK* NameSystem.delete: blk_7268649045879732129 is added to invalidSet of 10.251.109.236:50010
081110 103055 30 INFO dfs.FSNamesystem: BLOCK* NameSystem.delete: blk_7268649045879732129 is added to invalidSet of 10.251.39.192:50010
081110 103055 30 INFO dfs.FSNamesystem: BLOCK* NameSystem.delete: blk_7268649045879732129 is added to invalidSet of 10.251.66.192:50010
081110 103100 30 INFO dfs.FSNamesystem: BLOCK* NameSystem.delete: blk_3844581002541250978 is added to invalidSet of 10.251.125.237:50010
081110 103100 30 INFO dfs.FSNamesystem: BLOCK* NameSystem.delete: blk_3844581002541250978 is added to invalidSet of 10.251.126.83:50010
081110 103100 30 INFO dfs.FSNamesystem: BLOCK* NameSystem.delete: blk_3844581002541250978 is added to invalidSet of 10.251.90.64:50010
081110 103102 30 INFO dfs.FSNamesystem: BLOCK* NameSystem.delete: blk_-3212161715547945852 is added to invalidSet of 10.251.106.10:50010
081110 103102 30 INFO dfs.FSNamesystem: BLOCK* NameSystem.delete: blk_-3212161715547945852 is added to invalidSet of 10.251.29.239:50010
081110 103102 30 INFO dfs.FSNamesystem: BLOCK* NameSystem.delete: blk_-3212161715547945852 is added to invalidSet of 10.251.73.188:50010
081110 103102 30 INFO dfs.FSNamesystem: BLOCK* NameSystem.delete: blk_-5657847586075035586 is added to invalidSet of 10.251.122.79:50010
081110 103102 30 INFO dfs.FSNamesystem: BLOCK* NameSystem.delete: blk_-5657847586075035586 is added to invalidSet of 10.251.202.209:50010
081110 103102 30 INFO dfs.FSNamesystem: BLOCK* NameSystem.delete: blk_-5657847586075035586 is added to invalidSet of 10.251.73.188:50010
081110 103104 30 INFO dfs.FSNamesystem: BLOCK* NameSystem.delete: blk_3142006747336250276 is added to invalidSet of 10.250.10.213:50010
081110 103104 30 INFO dfs.FSNamesystem: BLOCK* NameSystem.delete: blk_3142006747336250276 is added to invalidSet of 10.250.11.85:50010
081110 103104 30 INFO dfs.FSNamesystem: BLOCK* NameSystem.delete: blk_3142006747336250276 is added to invalidSet of 10.251.107.242:50010
081110 103110 30 INFO dfs.FSNamesystem: BLOCK* NameSystem.delete: blk_-1902726151610118593 is added to invalidSet of 10.251.105.189:50010
081110 103110 30 INFO dfs.FSNamesystem: BLOCK* NameSystem.delete: blk_-1902726151610118593 is added to invalidSet of 10.251.31.5:50010
081110 103110 30 INFO dfs.FSNamesystem: BLOCK* NameSystem.delete: blk_-1902726151610118593 is added to invalidSet of 10.251.70.112:50010
081110 103111 30 INFO dfs.FSNamesystem: BLOCK* NameSystem.delete: blk_1015109016806279916 is added to invalidSet of 10.251.123.195:50010
081110 103111 30 INFO dfs.FSNamesystem: BLOCK* NameSystem.delete: blk_1015109016806279916 is added to invalidSet of 10.251.65.203:50010
081110 103111 30 INFO dfs.FSNamesystem: BLOCK* NameSystem.delete: blk_1015109016806279916 is added to invalidSet of 10.251.90.134:50010
081110 103112 30 INFO dfs.FSNamesystem: BLOCK* NameSystem.delete: blk_-5265559100160204198 is added to invalidSet of 10.250.18.114:50010
081110 103112 30 INFO dfs.FSNamesystem: BLOCK* NameSystem.delete: blk_-5265559100160204198 is added to invalidSet of 10.251.106.37:50010
081110 103112 30 INFO dfs.FSNamesystem: BLOCK* NameSystem.delete: blk_-5265559100160204198 is added to invalidSet of 10.251.195.70:50010
081110 103113 30 INFO dfs.FSNamesystem: BLOCK* NameSystem.delete: blk_5015382748364055161 is added to invalidSet of 10.250.10.6:50010
081110 103113 30 INFO dfs.FSNamesystem: BLOCK* NameSystem.delete: blk_5015382748364055161 is added to invalidSet of 10.250.5.237:50010
081110 103113 30 INFO dfs.FSNamesystem: BLOCK* NameSystem.delete: blk_5015382748364055161 is added to invalidSet of 10.251.109.236:50010
081110 103126 30 INFO dfs.FSNamesystem: BLOCK* NameSystem.delete: blk_621880599685510000 is added to invalidSet of 10.251.123.33:50010
081110 103126 30 INFO dfs.FSNamesystem: BLOCK* NameSystem.delete: blk_621880599685510000 is added to invalidSet of 10.251.126.227:50010
081110 103126 30 INFO dfs.FSNamesystem: BLOCK* NameSystem.delete: blk_621880599685510000 is added to invalidSet of 10.251.67.225:50010
081110 103130 30 INFO dfs.FSNamesystem: BLOCK* NameSystem.delete: blk_7328330497149854025 is added to invalidSet of 10.251.105.189:50010
081110 103130 30 INFO dfs.FSNamesystem: BLOCK* NameSystem.delete: blk_7328330497149854025 is added to invalidSet of 10.251.26.8:50010
081110 103130 30 INFO dfs.FSNamesystem: BLOCK* NameSystem.delete: blk_7328330497149854025 is added to invalidSet of 10.251.75.79:50010
081110 103135 30 INFO dfs.FSNamesystem: BLOCK* NameSystem.delete: blk_4753514775773618226 is added to invalidSet of 10.251.123.132:50010
081110 103135 30 INFO dfs.FSNamesystem: BLOCK* NameSystem.delete: blk_4753514775773618226 is added to invalidSet of 10.251.125.174:50010
081110 103135 30 INFO dfs.FSNamesystem: BLOCK* NameSystem.delete: blk_4753514775773618226 is added to invalidSet of 10.251.193.224:50010
081110 103136 18 INFO dfs.FSDataset: Deleting block blk_3708822198215730921 file /mnt/hadoop/dfs/data/current/subdir26/blk_3708822198215730921
081110 103140 30 INFO dfs.FSNamesystem: BLOCK* NameSystem.delete: blk_5952611007894728739 is added to invalidSet of 10.250.7.96:50010
081110 103140 30 INFO dfs.FSNamesystem: BLOCK* NameSystem.delete: blk_5952611007894728739 is added to invalidSet of 10.251.199.245:50010
081110 103140 30 INFO dfs.FSNamesystem: BLOCK* NameSystem.delete: blk_5952611007894728739 is added to invalidSet of 10.251.75.79:50010
081110 103145 30 INFO dfs.FSNamesystem: BLOCK* NameSystem.delete: blk_4705285038953734978 is added to invalidSet of 10.250.6.4:50010
081110 103145 30 INFO dfs.FSNamesystem: BLOCK* NameSystem.delete: blk_4705285038953734978 is added to invalidSet of 10.251.195.70:50010
081110 103145 30 INFO dfs.FSNamesystem: BLOCK* NameSystem.delete: blk_4705285038953734978 is added to invalidSet of 10.251.89.155:50010
081110 103145 30 INFO dfs.FSNamesystem: BLOCK* NameSystem.delete: blk_9101942982087725184 is added to invalidSet of 10.251.35.1:50010
081110 103145 30 INFO dfs.FSNamesystem: BLOCK* NameSystem.delete: blk_9101942982087725184 is added to invalidSet of 10.251.42.207:50010
081110 103145 30 INFO dfs.FSNamesystem: BLOCK* NameSystem.delete: blk_9101942982087725184 is added to invalidSet of 10.251.71.68:50010
081110 103147 30 INFO dfs.FSNamesystem: BLOCK* NameSystem.delete: blk_-430901031854681295 is added to invalidSet of 10.251.107.50:50010
081110 103147 30 INFO dfs.FSNamesystem: BLOCK* NameSystem.delete: blk_-430901031854681295 is added to invalidSet of 10.251.70.5:50010
081110 103148 30 INFO dfs.FSNamesystem: BLOCK* NameSystem.delete: blk_-430901031854681295 is added to invalidSet of 10.251.74.192:50010
081110 103148 30 INFO dfs.FSNamesystem: BLOCK* NameSystem.delete: blk_-7349233749672583537 is added to invalidSet of 10.250.14.224:50010
081110 103148 30 INFO dfs.FSNamesystem: BLOCK* NameSystem.delete: blk_-7349233749672583537 is added to invalidSet of 10.251.25.237:50010
081110 103148 30 INFO dfs.FSNamesystem: BLOCK* NameSystem.delete: blk_-7349233749672583537 is added to invalidSet of 10.251.39.160:50010
081110 103149 30 INFO dfs.FSNamesystem: BLOCK* NameSystem.delete: blk_1075002162913718819 is added to invalidSet of 10.251.199.19:50010
081110 103149 30 INFO dfs.FSNamesystem: BLOCK* NameSystem.delete: blk_1075002162913718819 is added to invalidSet of 10.251.42.16:50010
081110 103149 30 INFO dfs.FSNamesystem: BLOCK* NameSystem.delete: blk_1075002162913718819 is added to invalidSet of 10.251.75.143:50010
081110 103157 19 INFO dfs.FSDataset: Deleting block blk_8739792171471203455 file /mnt/hadoop/dfs/data/current/subdir21/blk_8739792171471203455
081110 103158 19 INFO dfs.FSDataset: Deleting block blk_8734648595969039069 file /mnt/hadoop/dfs/data/current/subdir15/blk_8734648595969039069
081110 103336 19 INFO dfs.FSDataset: Deleting block blk_-5265559100160204198 file /mnt/hadoop/dfs/data/current/subdir13/blk_-5265559100160204198
081110 103357 19 INFO dfs.FSDataset: Deleting block blk_-7361649090621909132 file /mnt/hadoop/dfs/data/current/subdir58/blk_-7361649090621909132
081110 103406 19 INFO dfs.FSDataset: Deleting block blk_-5265559100160204198 file /mnt/hadoop/dfs/data/current/subdir52/blk_-5265559100160204198
081110 103408 19 INFO dfs.FSDataset: Deleting block blk_9101942982087725184 file /mnt/hadoop/dfs/data/current/subdir7/blk_9101942982087725184
081110 103424 19 INFO dfs.FSDataset: Deleting block blk_-7349233749672583537 file /mnt/hadoop/dfs/data/current/subdir35/blk_-7349233749672583537
081110 103443 19 INFO dfs.FSDataset: Deleting block blk_-7349233749672583537 file /mnt/hadoop/dfs/data/current/subdir5/blk_-7349233749672583537
081110 103444 19 INFO dfs.FSDataset: Deleting block blk_-7361649090621909132 file /mnt/hadoop/dfs/data/current/subdir34/blk_-7361649090621909132
081110 103456 19 INFO dfs.FSDataset: Deleting block blk_-2001624183693917609 file /mnt/hadoop/dfs/data/current/subdir28/blk_-2001624183693917609
081110 103457 19 INFO dfs.FSDataset: Deleting block blk_-4271308323172675773 file /mnt/hadoop/dfs/data/current/subdir26/blk_-4271308323172675773
081110 103509 19 INFO dfs.FSDataset: Deleting block blk_-3212161715547945852 file /mnt/hadoop/dfs/data/current/subdir0/blk_-3212161715547945852
081110 103510 19 INFO dfs.FSDataset: Deleting block blk_-7361649090621909132 file /mnt/hadoop/dfs/data/current/subdir13/blk_-7361649090621909132
081110 103515 19 INFO dfs.FSDataset: Deleting block blk_-5265559100160204198 file /mnt/hadoop/dfs/data/current/subdir4/blk_-5265559100160204198
081110 103519 18 INFO dfs.FSDataset: Deleting block blk_-5215602110704192211 file /mnt/hadoop/dfs/data/current/subdir53/blk_-5215602110704192211
081110 103520 18 INFO dfs.FSDataset: Deleting block blk_3708822198215730921 file /mnt/hadoop/dfs/data/current/subdir36/blk_3708822198215730921
081110 103520 19 INFO dfs.FSDataset: Deleting block blk_1015109016806279916 file /mnt/hadoop/dfs/data/current/subdir59/blk_1015109016806279916
081110 103521 19 INFO dfs.FSDataset: Deleting block blk_-5657847586075035586 file /mnt/hadoop/dfs/data/current/subdir1/blk_-5657847586075035586
081110 103522 19 INFO dfs.FSDataset: Deleting block blk_-4271308323172675773 file /mnt/hadoop/dfs/data/current/subdir61/blk_-4271308323172675773
081110 103524 19 INFO dfs.FSDataset: Deleting block blk_-4407169605440420846 file /mnt/hadoop/dfs/data/current/subdir60/blk_-4407169605440420846
081110 103525 19 INFO dfs.FSDataset: Deleting block blk_-5657847586075035586 file /mnt/hadoop/dfs/data/current/subdir53/blk_-5657847586075035586
081110 103538 19 INFO dfs.FSDataset: Deleting block blk_-5657847586075035586 file /mnt/hadoop/dfs/data/current/subdir17/blk_-5657847586075035586
081110 103541 19 INFO dfs.FSDataset: Deleting block blk_-3212161715547945852 file /mnt/hadoop/dfs/data/current/subdir2/blk_-3212161715547945852
081110 103543 19 INFO dfs.FSDataset: Deleting block blk_-1902726151610118593 file /mnt/hadoop/dfs/data/current/subdir55/blk_-1902726151610118593
081110 103543 19 INFO dfs.FSDataset: Deleting block blk_-2001624183693917609 file /mnt/hadoop/dfs/data/current/subdir31/blk_-2001624183693917609
081110 103543 19 INFO dfs.FSDataset: Deleting block blk_-5215602110704192211 file /mnt/hadoop/dfs/data/current/subdir34/blk_-5215602110704192211
081110 103547 19 INFO dfs.FSDataset: Deleting block blk_1015109016806279916 file /mnt/hadoop/dfs/data/current/subdir45/blk_1015109016806279916
081110 103552 19 INFO dfs.FSDataset: Deleting block blk_-5215602110704192211 file /mnt/hadoop/dfs/data/current/subdir37/blk_-5215602110704192211
081110 103556 19 INFO dfs.FSDataset: Deleting block blk_-4271308323172675773 file /mnt/hadoop/dfs/data/current/subdir0/blk_-4271308323172675773
081110 103557 19 INFO dfs.FSDataset: Deleting block blk_-4407169605440420846 file /mnt/hadoop/dfs/data/current/subdir15/blk_-4407169605440420846
081110 103603 19 INFO dfs.FSDataset: Deleting block blk_-1902726151610118593 file /mnt/hadoop/dfs/data/current/subdir58/blk_-1902726151610118593
081110 103604 19 INFO dfs.FSDataset: Deleting block blk_-2001624183693917609 file /mnt/hadoop/dfs/data/current/subdir51/blk_-2001624183693917609
081110 103604 19 INFO dfs.FSDataset: Deleting block blk_-220175262582300342 file /mnt/hadoop/dfs/data/current/subdir37/blk_-220175262582300342
081110 103608 19 INFO dfs.FSDataset: Deleting block blk_-220175262582300342 file /mnt/hadoop/dfs/data/current/subdir24/blk_-220175262582300342
081110 103609 19 INFO dfs.FSDataset: Deleting block blk_-1633451012039995780 file /mnt/hadoop/dfs/data/current/subdir26/blk_-1633451012039995780
081110 103615 19 INFO dfs.FSDataset: Deleting block blk_3142006747336250276 file /mnt/hadoop/dfs/data/current/subdir55/blk_3142006747336250276
081110 103617 19 INFO dfs.FSDataset: Deleting block blk_-1633451012039995780 file /mnt/hadoop/dfs/data/current/subdir36/blk_-1633451012039995780
081110 103617 19 INFO dfs.FSDataset: Deleting block blk_-220175262582300342 file /mnt/hadoop/dfs/data/current/subdir18/blk_-220175262582300342
081110 103622 19 INFO dfs.FSDataset: Deleting block blk_9101942982087725184 file /mnt/hadoop/dfs/data/current/subdir33/blk_9101942982087725184
081110 103625 19 INFO dfs.FSDataset: Deleting block blk_5465158673602396669 file /mnt/hadoop/dfs/data/current/subdir17/blk_5465158673602396669
081110 103630 18 INFO dfs.FSDataset: Deleting block blk_-1902726151610118593 file /mnt/hadoop/dfs/data/current/subdir53/blk_-1902726151610118593
081110 103630 19 INFO dfs.FSDataset: Deleting block blk_4114836081645547113 file /mnt/hadoop/dfs/data/current/subdir56/blk_4114836081645547113
081110 103631 18 INFO dfs.FSDataset: Deleting block blk_-430901031854681295 file /mnt/hadoop/dfs/data/current/subdir40/blk_-430901031854681295
081110 103631 19 INFO dfs.FSDataset: Deleting block blk_1075002162913718819 file /mnt/hadoop/dfs/data/current/subdir23/blk_1075002162913718819
081110 103635 19 INFO dfs.FSDataset: Deleting block blk_5015382748364055161 file /mnt/hadoop/dfs/data/current/subdir8/blk_5015382748364055161
081110 103641 19 INFO dfs.FSDataset: Deleting block blk_3142006747336250276 file /mnt/hadoop/dfs/data/current/subdir9/blk_3142006747336250276
081110 103644 19 INFO dfs.FSDataset: Deleting block blk_-4407169605440420846 file /mnt/hadoop/dfs/data/current/subdir20/blk_-4407169605440420846
081110 103649 19 INFO dfs.FSDataset: Deleting block blk_5015382748364055161 file /mnt/hadoop/dfs/data/current/subdir8/blk_5015382748364055161
081110 103649 19 INFO dfs.FSDataset: Deleting block blk_621880599685510000 file /mnt/hadoop/dfs/data/current/subdir1/blk_621880599685510000
081110 103652 18 INFO dfs.FSDataset: Deleting block blk_621880599685510000 file /mnt/hadoop/dfs/data/current/subdir24/blk_621880599685510000
081110 103652 19 INFO dfs.FSDataset: Deleting block blk_-430901031854681295 file /mnt/hadoop/dfs/data/current/subdir62/blk_-430901031854681295
081110 103653 19 INFO dfs.FSDataset: Deleting block blk_4705285038953734978 file /mnt/hadoop/dfs/data/current/subdir10/blk_4705285038953734978
081110 103655 19 INFO dfs.FSDataset: Deleting block blk_4114836081645547113 file /mnt/hadoop/dfs/data/current/subdir23/blk_4114836081645547113
081110 103655 19 INFO dfs.FSDataset: Deleting block blk_6646294237022164757 file /mnt/hadoop/dfs/data/current/subdir22/blk_6646294237022164757
081110 103656 19 INFO dfs.FSDataset: Deleting block blk_1075002162913718819 file /mnt/hadoop/dfs/data/current/subdir52/blk_1075002162913718819
081110 103659 19 INFO dfs.FSDataset: Deleting block blk_3142006747336250276 file /mnt/hadoop/dfs/data/current/subdir5/blk_3142006747336250276
081110 103703 19 INFO dfs.FSDataset: Deleting block blk_1075002162913718819 file /mnt/hadoop/dfs/data/current/subdir30/blk_1075002162913718819
081110 103704 19 INFO dfs.FSDataset: Deleting block blk_-430901031854681295 file /mnt/hadoop/dfs/data/current/subdir20/blk_-430901031854681295
081110 103709 19 INFO dfs.FSDataset: Deleting block blk_5015382748364055161 file /mnt/hadoop/dfs/data/current/subdir3/blk_5015382748364055161
081110 103714 18 INFO dfs.FSDataset: Deleting block blk_1015109016806279916 file /mnt/hadoop/dfs/data/current/subdir12/blk_1015109016806279916
081110 103722 19 INFO dfs.FSDataset: Deleting block blk_6646294237022164757 file /mnt/hadoop/dfs/data/current/subdir35/blk_6646294237022164757
081110 103723 19 INFO dfs.FSDataset: Deleting block blk_8734648595969039069 file /mnt/hadoop/dfs/data/current/subdir22/blk_8734648595969039069
081110 103727 19 INFO dfs.FSDataset: Deleting block blk_4753514775773618226 file /mnt/hadoop/dfs/data/current/subdir13/blk_4753514775773618226
081110 103727 19 INFO dfs.FSDataset: Deleting block blk_5952611007894728739 file /mnt/hadoop/dfs/data/current/subdir46/blk_5952611007894728739
081110 103729 19 INFO dfs.FSDataset: Deleting block blk_6646294237022164757 file /mnt/hadoop/dfs/data/current/subdir4/blk_6646294237022164757
081110 103730 19 INFO dfs.FSDataset: Deleting block blk_7268649045879732129 file /mnt/hadoop/dfs/data/current/blk_7268649045879732129
081110 103732 19 INFO dfs.FSDataset: Deleting block blk_7328330497149854025 file /mnt/hadoop/dfs/data/current/subdir28/blk_7328330497149854025
081110 103733 19 INFO dfs.FSDataset: Deleting block blk_4114836081645547113 file /mnt/hadoop/dfs/data/current/subdir53/blk_4114836081645547113
081110 103733 19 INFO dfs.FSDataset: Deleting block blk_5465158673602396669 file /mnt/hadoop/dfs/data/current/subdir22/blk_5465158673602396669
081110 103738 19 INFO dfs.FSDataset: Deleting block blk_8734648595969039069 file /mnt/hadoop/dfs/data/current/subdir59/blk_8734648595969039069
081110 103742 19 INFO dfs.FSDataset: Deleting block blk_3844581002541250978 file /mnt/hadoop/dfs/data/current/subdir12/blk_3844581002541250978
081110 103743 19 INFO dfs.FSDataset: Deleting block blk_9101942982087725184 file /mnt/hadoop/dfs/data/current/subdir52/blk_9101942982087725184
081110 103745 18 INFO dfs.FSDataset: Deleting block blk_7268649045879732129 file /mnt/hadoop/dfs/data/current/blk_7268649045879732129
081110 103745 19 INFO dfs.FSDataset: Deleting block blk_4705285038953734978 file /mnt/hadoop/dfs/data/current/subdir24/blk_4705285038953734978
081110 103745 19 INFO dfs.FSDataset: Deleting block blk_5952611007894728739 file /mnt/hadoop/dfs/data/current/subdir27/blk_5952611007894728739
081110 103746 19 INFO dfs.FSDataset: Deleting block blk_4753514775773618226 file /mnt/hadoop/dfs/data/current/subdir43/blk_4753514775773618226
081110 103749 19 INFO dfs.FSDataset: Deleting block blk_4705285038953734978 file /mnt/hadoop/dfs/data/current/subdir10/blk_4705285038953734978
081110 103757 19 INFO dfs.FSDataset: Deleting block blk_3844581002541250978 file /mnt/hadoop/dfs/data/current/subdir49/blk_3844581002541250978
081110 103757 19 INFO dfs.FSDataset: Deleting block blk_4753514775773618226 file /mnt/hadoop/dfs/data/current/subdir53/blk_4753514775773618226
081110 103758 19 INFO dfs.FSDataset: Deleting block blk_5465158673602396669 file /mnt/hadoop/dfs/data/current/subdir46/blk_5465158673602396669
081110 103759 19 INFO dfs.FSDataset: Deleting block blk_3844581002541250978 file /mnt/hadoop/dfs/data/current/subdir50/blk_3844581002541250978
081110 103806 19 WARN dfs.FSDataset: Unexpected error trying to delete block blk_8734648595969039069. BlockInfo not found in volumeMap.
081110 103806 19 WARN dfs.FSDataset: Unexpected error trying to delete block blk_8739792171471203455. BlockInfo not found in volumeMap.
081110 103831 18 INFO dfs.FSDataset: Deleting block blk_7328330497149854025 file /mnt/hadoop/dfs/data/current/subdir59/blk_7328330497149854025
081110 103834 19 INFO dfs.FSDataset: Deleting block blk_3708822198215730921 file /mnt/hadoop/dfs/data/current/subdir28/blk_3708822198215730921
081110 103857 19 WARN dfs.FSDataset: Unexpected error trying to delete block blk_9101942982087725184. BlockInfo not found in volumeMap.
081110 103902 19 INFO dfs.FSDataset: Deleting block blk_5952611007894728739 file /mnt/hadoop/dfs/data/current/subdir14/blk_5952611007894728739
081110 103925 18 INFO dfs.FSDataset: Deleting block blk_8739792171471203455 file /mnt/hadoop/dfs/data/current/subdir34/blk_8739792171471203455
081110 103933 27 INFO dfs.FSNamesystem: BLOCK* NameSystem.allocateBlock: /user/root/rand/_temporary/_task_200811101024_0001_m_000276_0/part-00276. blk_-1416130336077518778
081110 103933 9040 INFO dfs.DataNode$DataXceiver: Receiving block blk_-1416130336077518778 src: /10.251.123.1:44503 dest: /10.251.123.1:50010
081110 103933 9076 INFO dfs.DataNode$DataXceiver: Receiving block blk_-1416130336077518778 src: /10.251.194.102:55305 dest: /10.251.194.102:50010
081110 103933 9143 INFO dfs.DataNode$DataXceiver: Receiving block blk_-1416130336077518778 src: /10.251.194.102:52059 dest: /10.251.194.102:50010
081110 103947 19 INFO dfs.FSDataset: Deleting block blk_7328330497149854025 file /mnt/hadoop/dfs/data/current/subdir16/blk_7328330497149854025
081110 103958 34 INFO dfs.FSNamesystem: BLOCK* NameSystem.allocateBlock: /user/root/rand/_temporary/_task_200811101024_0001_m_000385_0/part-00385. blk_-8028419203262447911
081110 103958 9334 INFO dfs.DataNode$DataXceiver: Receiving block blk_-8028419203262447911 src: /10.251.198.33:35605 dest: /10.251.198.33:50010
081110 103959 9105 INFO dfs.DataNode$DataXceiver: Receiving block blk_-8028419203262447911 src: /10.251.106.50:56604 dest: /10.251.106.50:50010
081110 103959 9217 INFO dfs.DataNode$DataXceiver: Receiving block blk_-8028419203262447911 src: /10.251.198.33:35339 dest: /10.251.198.33:50010
081110 104006 30 INFO dfs.FSNamesystem: BLOCK* NameSystem.addStoredBlock: blockMap updated: 10.251.123.1:50010 is added to blk_-1416130336077518778 size 67108864
081110 104006 31 INFO dfs.FSNamesystem: BLOCK* NameSystem.addStoredBlock: blockMap updated: 10.251.194.102:50010 is added to blk_-1416130336077518778 size 67108864
081110 104006 35 INFO dfs.FSNamesystem: BLOCK* NameSystem.addStoredBlock: blockMap updated: 10.251.111.130:50010 is added to blk_-1416130336077518778 size 67108864
081110 104006 9041 INFO dfs.DataNode$PacketResponder: PacketResponder 0 for block blk_-1416130336077518778 terminating
081110 104006 9041 INFO dfs.DataNode$PacketResponder: Received block blk_-1416130336077518778 of size 67108864 from /10.251.123.1
081110 104006 9077 INFO dfs.DataNode$PacketResponder: PacketResponder 2 for block blk_-1416130336077518778 terminating
081110 104006 9077 INFO dfs.DataNode$PacketResponder: Received block blk_-1416130336077518778 of size 67108864 from /10.251.194.102
081110 104006 9144 INFO dfs.DataNode$PacketResponder: PacketResponder 1 for block blk_-1416130336077518778 terminating
081110 104006 9144 INFO dfs.DataNode$PacketResponder: Received block blk_-1416130336077518778 of size 67108864 from /10.251.194.102
081110 104021 19 INFO dfs.FSDataset: Deleting block blk_7268649045879732129 file /mnt/hadoop/dfs/data/current/blk_7268649045879732129
081110 104037 31 INFO dfs.FSNamesystem: BLOCK* NameSystem.addStoredBlock: blockMap updated: 10.251.121.224:50010 is added to blk_-8028419203262447911 size 67108864
081110 104037 35 INFO dfs.FSNamesystem: BLOCK* NameSystem.addStoredBlock: blockMap updated: 10.251.106.50:50010 is added to blk_-8028419203262447911 size 67108864
081110 104037 9106 INFO dfs.DataNode$PacketResponder: PacketResponder 0 for block blk_-8028419203262447911 terminating
081110 104037 9106 INFO dfs.DataNode$PacketResponder: Received block blk_-8028419203262447911 of size 67108864 from /10.251.106.50
081110 104037 9218 INFO dfs.DataNode$PacketResponder: PacketResponder 1 for block blk_-8028419203262447911 terminating
081110 104037 9218 INFO dfs.DataNode$PacketResponder: Received block blk_-8028419203262447911 of size 67108864 from /10.251.198.33
081110 104037 9337 INFO dfs.DataNode$PacketResponder: PacketResponder 2 for block blk_-8028419203262447911 terminating
081110 104037 9337 INFO dfs.DataNode$PacketResponder: Received block blk_-8028419203262447911 of size 67108864 from /10.251.198.33
081110 104112 19 INFO dfs.FSDataset: Deleting block blk_-7349233749672583537 file /mnt/hadoop/dfs/data/current/subdir51/blk_-7349233749672583537
081110 104121 19 INFO dfs.FSDataset: Deleting block blk_8739792171471203455 file /mnt/hadoop/dfs/data/current/subdir20/blk_8739792171471203455
081110 104329 32 INFO dfs.FSNamesystem: BLOCK* NameSystem.addStoredBlock: blockMap updated: 10.251.198.33:50010 is added to blk_-8028419203262447911 size 67108864
081110 104623 31 INFO dfs.FSNamesystem: BLOCK* NameSystem.allocateBlock: /user/root/rand/_temporary/_task_200811101024_0001_m_000550_0/part-00550. blk_4921365742913001999
081110 104623 9276 INFO dfs.DataNode$DataXceiver: Receiving block blk_4921365742913001999 src: /10.251.39.64:40558 dest: /10.251.39.64:50010
081110 104624 9221 INFO dfs.DataNode$DataXceiver: Receiving block blk_4921365742913001999 src: /10.251.39.64:56115 dest: /10.251.39.64:50010
081110 104624 9275 INFO dfs.DataNode$DataXceiver: Receiving block blk_4921365742913001999 src: /10.251.110.196:43304 dest: /10.251.110.196:50010
081110 104629 27 INFO dfs.FSNamesystem: BLOCK* NameSystem.addStoredBlock: addStoredBlock request received for blk_-1633451012039995780 on 10.251.106.10:50010 size 67108864 But it does not belong to any file.
081110 104629 27 INFO dfs.FSNamesystem: BLOCK* NameSystem.addStoredBlock: addStoredBlock request received for blk_-3212161715547945852 on 10.251.106.10:50010 size 67108864 But it does not belong to any file.
081110 104629 27 INFO dfs.FSNamesystem: BLOCK* NameSystem.addStoredBlock: blockMap updated: 10.251.106.10:50010 is added to blk_-1633451012039995780 size 67108864
081110 104629 27 INFO dfs.FSNamesystem: BLOCK* NameSystem.addStoredBlock: blockMap updated: 10.251.106.10:50010 is added to blk_-3212161715547945852 size 67108864
081110 104708 28 INFO dfs.FSNamesystem: BLOCK* NameSystem.addStoredBlock: blockMap updated: 10.251.39.64:50010 is added to blk_4921365742913001999 size 67108864
081110 104708 33 INFO dfs.FSNamesystem: BLOCK* NameSystem.addStoredBlock: blockMap updated: 10.251.110.196:50010 is added to blk_4921365742913001999 size 67108864
081110 104708 9222 INFO dfs.DataNode$PacketResponder: PacketResponder 1 for block blk_4921365742913001999 terminating
081110 104708 9222 INFO dfs.DataNode$PacketResponder: Received block blk_4921365742913001999 of size 67108864 from /10.251.39.64
081110 104708 9276 INFO dfs.DataNode$PacketResponder: PacketResponder 0 for block blk_4921365742913001999 terminating
081110 104708 9276 INFO dfs.DataNode$PacketResponder: Received block blk_4921365742913001999 of size 67108864 from /10.251.110.196
081110 104708 9277 INFO dfs.DataNode$PacketResponder: PacketResponder 2 for block blk_4921365742913001999 terminating
081110 104708 9277 INFO dfs.DataNode$PacketResponder: Received block blk_4921365742913001999 of size 67108864 from /10.251.39.64
081110 104709 30 INFO dfs.FSNamesystem: BLOCK* NameSystem.addStoredBlock: blockMap updated: 10.251.35.1:50010 is added to blk_4921365742913001999 size 67108864
081110 104943 19 INFO dfs.FSDataset: Deleting block blk_-3212161715547945852 file /mnt/hadoop/dfs/data/current/subdir58/blk_-3212161715547945852
081110 105008 32 INFO dfs.FSNamesystem: BLOCK* NameSystem.allocateBlock: /user/root/rand/_temporary/_task_200811101024_0001_m_000467_0/part-00467. blk_6731497305744378792
081110 105008 9065 INFO dfs.DataNode$DataXceiver: Receiving block blk_6731497305744378792 src: /10.251.109.236:46109 dest: /10.251.109.236:50010
081110 105009 9364 INFO dfs.DataNode$DataXceiver: Receiving block blk_6731497305744378792 src: /10.251.109.236:53640 dest: /10.251.109.236:50010
081110 105010 9246 INFO dfs.DataNode$DataXceiver: Receiving block blk_6731497305744378792 src: /10.251.107.19:49984 dest: /10.251.107.19:50010
081110 105029 19 INFO dfs.FSDataset: Deleting block blk_-1633451012039995780 file /mnt/hadoop/dfs/data/current/subdir8/blk_-1633451012039995780
081110 105058 9248 INFO dfs.DataNode$PacketResponder: PacketResponder 0 for block blk_6731497305744378792 terminating
081110 105058 9248 INFO dfs.DataNode$PacketResponder: Received block blk_6731497305744378792 of size 67108864 from /10.251.107.19
081110 105058 9366 INFO dfs.DataNode$PacketResponder: Received block blk_6731497305744378792 of size 67108864 from /10.251.109.236
081110 105059 27 INFO dfs.FSNamesystem: BLOCK* NameSystem.addStoredBlock: blockMap updated: 10.251.107.19:50010 is added to blk_6731497305744378792 size 67108864
081110 105059 29 INFO dfs.FSNamesystem: BLOCK* NameSystem.addStoredBlock: blockMap updated: 10.251.109.236:50010 is added to blk_6731497305744378792 size 67108864
081110 105059 34 INFO dfs.FSNamesystem: BLOCK* NameSystem.addStoredBlock: blockMap updated: 10.251.43.210:50010 is added to blk_6731497305744378792 size 67108864
081110 105059 9068 INFO dfs.DataNode$PacketResponder: PacketResponder 2 for block blk_6731497305744378792 terminating
081110 105059 9068 INFO dfs.DataNode$PacketResponder: Received block blk_6731497305744378792 of size 67108864 from /10.251.109.236
081110 105059 9366 INFO dfs.DataNode$PacketResponder: PacketResponder 1 for block blk_6731497305744378792 terminating
081110 105509 19 INFO dfs.FSDataset: Deleting block blk_621880599685510000 file /mnt/hadoop/dfs/data/current/subdir56/blk_621880599685510000
081110 105747 29 INFO dfs.FSNamesystem: BLOCK* NameSystem.allocateBlock: /user/root/rand/_temporary/_task_200811101024_0001_m_000784_0/part-00784. blk_-3011614520855474984
081110 105747 9419 INFO dfs.DataNode$DataXceiver: Receiving block blk_-3011614520855474984 src: /10.251.91.159:32930 dest: /10.251.91.159:50010
081110 105747 9432 INFO dfs.DataNode$DataXceiver: Receiving block blk_-3011614520855474984 src: /10.251.31.85:46788 dest: /10.251.31.85:50010
081110 105747 9592 INFO dfs.DataNode$DataXceiver: Receiving block blk_-3011614520855474984 src: /10.251.31.85:42656 dest: /10.251.31.85:50010
081110 105830 27 INFO dfs.FSNamesystem: BLOCK* NameSystem.addStoredBlock: blockMap updated: 10.251.91.159:50010 is added to blk_-3011614520855474984 size 67108864
081110 105830 28 INFO dfs.FSNamesystem: BLOCK* NameSystem.addStoredBlock: blockMap updated: 10.250.15.101:50010 is added to blk_-3011614520855474984 size 67108864
081110 105830 9420 INFO dfs.DataNode$PacketResponder: PacketResponder 0 for block blk_-3011614520855474984 terminating
081110 105830 9420 INFO dfs.DataNode$PacketResponder: Received block blk_-3011614520855474984 of size 67108864 from /10.251.91.159
081110 105830 9433 INFO dfs.DataNode$PacketResponder: PacketResponder 1 for block blk_-3011614520855474984 terminating
081110 105830 9433 INFO dfs.DataNode$PacketResponder: Received block blk_-3011614520855474984 of size 67108864 from /10.251.31.85
081110 105831 31 INFO dfs.FSNamesystem: BLOCK* NameSystem.addStoredBlock: blockMap updated: 10.251.31.85:50010 is added to blk_-3011614520855474984 size 67108864
081110 105832 9593 INFO dfs.DataNode$PacketResponder: PacketResponder 2 for block blk_-3011614520855474984 terminating
081110 105832 9593 INFO dfs.DataNode$PacketResponder: Received block blk_-3011614520855474984 of size 67108864 from /10.251.31.85
081110 105852 26 INFO dfs.FSNamesystem: BLOCK* NameSystem.allocateBlock: /user/root/rand/_temporary/_task_200811101024_0001_m_000876_0/part-00876. blk_4181481896456927575
081110 105852 9443 INFO dfs.DataNode$DataXceiver: Receiving block blk_4181481896456927575 src: /10.251.66.192:45520 dest: /10.251.66.192:50010
081110 105852 9446 INFO dfs.DataNode$DataXceiver: Receiving block blk_4181481896456927575 src: /10.251.66.192:53842 dest: /10.251.66.192:50010
081110 105853 9644 INFO dfs.DataNode$DataXceiver: Receiving block blk_4181481896456927575 src: /10.251.91.229:51277 dest: /10.251.91.229:50010
081110 105942 31 INFO dfs.FSNamesystem: BLOCK* NameSystem.addStoredBlock: blockMap updated: 10.251.91.229:50010 is added to blk_4181481896456927575 size 67108864
081110 105942 34 INFO dfs.FSNamesystem: BLOCK* NameSystem.addStoredBlock: blockMap updated: 10.251.199.150:50010 is added to blk_4181481896456927575 size 67108864
081110 105942 34 INFO dfs.FSNamesystem: BLOCK* NameSystem.addStoredBlock: blockMap updated: 10.251.66.192:50010 is added to blk_4181481896456927575 size 67108864
081110 105942 9444 INFO dfs.DataNode$PacketResponder: PacketResponder 2 for block blk_4181481896456927575 terminating
081110 105942 9444 INFO dfs.DataNode$PacketResponder: Received block blk_4181481896456927575 of size 67108864 from /10.251.66.192
081110 105942 9447 INFO dfs.DataNode$PacketResponder: PacketResponder 1 for block blk_4181481896456927575 terminating
081110 105942 9447 INFO dfs.DataNode$PacketResponder: Received block blk_4181481896456927575 of size 67108864 from /10.251.66.192
081110 105942 9645 INFO dfs.DataNode$PacketResponder: PacketResponder 0 for block blk_4181481896456927575 terminating
081110 105942 9645 INFO dfs.DataNode$PacketResponder: Received block blk_4181481896456927575 of size 67108864 from /10.251.91.229
081110 110133 34 INFO dfs.FSNamesystem: BLOCK* NameSystem.allocateBlock: /user/root/rand/_temporary/_task_200811101024_0001_m_001148_0/part-01148. blk_5288787164987522720
081110 110133 9466 INFO dfs.DataNode$DataXceiver: Receiving block blk_5288787164987522720 src: /10.251.123.1:34899 dest: /10.251.123.1:50010
081110 110133 9571 INFO dfs.DataNode$DataXceiver: Receiving block blk_5288787164987522720 src: /10.251.123.1:57798 dest: /10.251.123.1:50010
081110 110133 9603 INFO dfs.DataNode$DataXceiver: Receiving block blk_5288787164987522720 src: /10.251.203.149:50404 dest: /10.251.203.149:50010
081110 110220 28 INFO dfs.FSNamesystem: BLOCK* NameSystem.addStoredBlock: blockMap updated: 10.251.203.149:50010 is added to blk_5288787164987522720 size 67108864
081110 110220 34 INFO dfs.FSNamesystem: BLOCK* NameSystem.addStoredBlock: blockMap updated: 10.251.123.1:50010 is added to blk_5288787164987522720 size 67108864
081110 110220 35 INFO dfs.FSNamesystem: BLOCK* NameSystem.addStoredBlock: blockMap updated: 10.250.17.225:50010 is added to blk_5288787164987522720 size 67108864
081110 110220 9467 INFO dfs.DataNode$PacketResponder: PacketResponder 1 for block blk_5288787164987522720 terminating
081110 110220 9467 INFO dfs.DataNode$PacketResponder: Received block blk_5288787164987522720 of size 67108864 from /10.251.123.1
081110 110220 9572 INFO dfs.DataNode$PacketResponder: PacketResponder 2 for block blk_5288787164987522720 terminating
081110 110220 9572 INFO dfs.DataNode$PacketResponder: Received block blk_5288787164987522720 of size 67108864 from /10.251.123.1
081110 110220 9604 INFO dfs.DataNode$PacketResponder: PacketResponder 0 for block blk_5288787164987522720 terminating
081110 110220 9604 INFO dfs.DataNode$PacketResponder: Received block blk_5288787164987522720 of size 67108864 from /10.251.203.149
081110 111847 13 INFO dfs.DataBlockScanner: Verification succeeded for blk_4921365742913001999
081110 111901 35 INFO dfs.FSNamesystem: BLOCK* NameSystem.allocateBlock: /user/root/rand/_temporary/_task_200811101024_0001_m_001510_0/part-01510. blk_4567887863537169495
081110 111901 8823 INFO dfs.DataNode$DataXceiver: Receiving block blk_4567887863537169495 src: /10.251.71.146:37668 dest: /10.251.71.146:50010
081110 111901 9797 INFO dfs.DataNode$DataXceiver: Receiving block blk_4567887863537169495 src: /10.251.71.146:39686 dest: /10.251.71.146:50010
081110 111905 9921 INFO dfs.DataNode$DataXceiver: Receiving block blk_4567887863537169495 src: /10.251.107.50:43069 dest: /10.251.107.50:50010
081110 111934 28 INFO dfs.FSNamesystem: BLOCK* NameSystem.addStoredBlock: blockMap updated: 10.251.65.237:50010 is added to blk_4567887863537169495 size 67108864
081110 111934 29 INFO dfs.FSNamesystem: BLOCK* NameSystem.addStoredBlock: blockMap updated: 10.251.107.50:50010 is added to blk_4567887863537169495 size 67108864
081110 111934 30 INFO dfs.FSNamesystem: BLOCK* NameSystem.addStoredBlock: blockMap updated: 10.251.71.146:50010 is added to blk_4567887863537169495 size 67108864
081110 111934 8825 INFO dfs.DataNode$PacketResponder: PacketResponder 1 for block blk_4567887863537169495 terminating
081110 111934 8825 INFO dfs.DataNode$PacketResponder: Received block blk_4567887863537169495 of size 67108864 from /10.251.71.146
081110 111934 9803 INFO dfs.DataNode$PacketResponder: PacketResponder 2 for block blk_4567887863537169495 terminating
081110 111934 9803 INFO dfs.DataNode$PacketResponder: Received block blk_4567887863537169495 of size 67108864 from /10.251.71.146
081110 111934 9922 INFO dfs.DataNode$PacketResponder: PacketResponder 0 for block blk_4567887863537169495 terminating
081110 111934 9922 INFO dfs.DataNode$PacketResponder: Received block blk_4567887863537169495 of size 67108864 from /10.251.107.50
081110 113421 10081 INFO dfs.DataNode$DataXceiver: Receiving block blk_285488593273205527 src: /10.251.90.134:54134 dest: /10.251.90.134:50010
081110 113421 10124 INFO dfs.DataNode$DataXceiver: Receiving block blk_285488593273205527 src: /10.251.90.134:34346 dest: /10.251.90.134:50010
081110 113421 10178 INFO dfs.DataNode$DataXceiver: Receiving block blk_285488593273205527 src: /10.251.110.8:48444 dest: /10.251.110.8:50010
081110 113421 28 INFO dfs.FSNamesystem: BLOCK* NameSystem.allocateBlock: /user/root/rand/_temporary/_task_200811101024_0001_m_001976_0/part-01976. blk_285488593273205527
081110 113445 10125 INFO dfs.DataNode$PacketResponder: PacketResponder 1 for block blk_285488593273205527 terminating
081110 113445 10125 INFO dfs.DataNode$PacketResponder: Received block blk_285488593273205527 of size 67108864 from /10.251.90.134
081110 113445 10180 INFO dfs.DataNode$PacketResponder: PacketResponder 0 for block blk_285488593273205527 terminating
081110 113445 10180 INFO dfs.DataNode$PacketResponder: Received block blk_285488593273205527 of size 67108864 from /10.251.110.8
081110 113446 10083 INFO dfs.DataNode$PacketResponder: PacketResponder 2 for block blk_285488593273205527 terminating
081110 113446 10083 INFO dfs.DataNode$PacketResponder: Received block blk_285488593273205527 of size 67108864 from /10.251.90.134
081110 113446 32 INFO dfs.FSNamesystem: BLOCK* NameSystem.addStoredBlock: blockMap updated: 10.251.127.47:50010 is added to blk_285488593273205527 size 67108864
081110 113446 33 INFO dfs.FSNamesystem: BLOCK* NameSystem.addStoredBlock: blockMap updated: 10.251.110.8:50010 is added to blk_285488593273205527 size 67108864
081110 113446 33 INFO dfs.FSNamesystem: BLOCK* NameSystem.addStoredBlock: blockMap updated: 10.251.90.134:50010 is added to blk_285488593273205527 size 67108864
081110 113950 10362 INFO dfs.DataNode$DataXceiver: Receiving block blk_9180460506127105903 src: /10.250.7.32:54529 dest: /10.250.7.32:50010
081110 113950 26 INFO dfs.FSNamesystem: BLOCK* NameSystem.allocateBlock: /user/root/randtxt2/_temporary/_task_200811101024_0002_m_000283_0/part-00283. blk_9180460506127105903
081110 113951 10384 INFO dfs.DataNode$DataXceiver: Receiving block blk_9180460506127105903 src: /10.251.39.144:54830 dest: /10.251.39.144:50010
081110 113951 10520 INFO dfs.DataNode$DataXceiver: Receiving block blk_9180460506127105903 src: /10.250.7.32:33972 dest: /10.250.7.32:50010
081110 114039 10235 INFO dfs.DataNode$DataXceiver: Receiving block blk_2087586991849997617 src: /10.250.7.244:44822 dest: /10.250.7.244:50010
081110 114039 10262 INFO dfs.DataNode$DataXceiver: Receiving block blk_2087586991849997617 src: /10.251.70.211:35635 dest: /10.251.70.211:50010
081110 114039 10335 INFO dfs.DataNode$DataXceiver: Receiving block blk_2087586991849997617 src: /10.250.7.244:59376 dest: /10.250.7.244:50010
081110 114039 35 INFO dfs.FSNamesystem: BLOCK* NameSystem.allocateBlock: /user/root/randtxt2/_temporary/_task_200811101024_0002_m_000341_0/part-00341. blk_2087586991849997617
081110 114058 10363 INFO dfs.DataNode$PacketResponder: PacketResponder 2 for block blk_9180460506127105903 terminating
081110 114058 10363 INFO dfs.DataNode$PacketResponder: Received block blk_9180460506127105903 of size 67108864 from /10.250.7.32
081110 114058 10385 INFO dfs.DataNode$PacketResponder: PacketResponder 0 for block blk_9180460506127105903 terminating
081110 114058 10385 INFO dfs.DataNode$PacketResponder: Received block blk_9180460506127105903 of size 67108864 from /10.251.39.144
081110 114058 10521 INFO dfs.DataNode$PacketResponder: PacketResponder 1 for block blk_9180460506127105903 terminating
081110 114058 10521 INFO dfs.DataNode$PacketResponder: Received block blk_9180460506127105903 of size 67108864 from /10.250.7.32
081110 114058 28 INFO dfs.FSNamesystem: BLOCK* NameSystem.addStoredBlock: blockMap updated: 10.250.7.32:50010 is added to blk_9180460506127105903 size 67108864
081110 114058 30 INFO dfs.FSNamesystem: BLOCK* NameSystem.addStoredBlock: blockMap updated: 10.251.197.226:50010 is added to blk_9180460506127105903 size 67108864
081110 114058 35 INFO dfs.FSNamesystem: BLOCK* NameSystem.addStoredBlock: blockMap updated: 10.251.39.144:50010 is added to blk_9180460506127105903 size 67108864
081110 114141 10236 INFO dfs.DataNode$PacketResponder: PacketResponder 2 for block blk_2087586991849997617 terminating
081110 114141 10236 INFO dfs.DataNode$PacketResponder: Received block blk_2087586991849997617 of size 67108864 from /10.250.7.244
081110 114141 10264 INFO dfs.DataNode$PacketResponder: PacketResponder 0 for block blk_2087586991849997617 terminating
081110 114141 10264 INFO dfs.DataNode$PacketResponder: Received block blk_2087586991849997617 of size 67108864 from /10.251.70.211
081110 114141 10336 INFO dfs.DataNode$PacketResponder: PacketResponder 1 for block blk_2087586991849997617 terminating
081110 114141 10336 INFO dfs.DataNode$PacketResponder: Received block blk_2087586991849997617 of size 67108864 from /10.250.7.244
081110 114141 28 INFO dfs.FSNamesystem: BLOCK* NameSystem.addStoredBlock: blockMap updated: 10.251.70.211:50010 is added to blk_2087586991849997617 size 67108864
081110 114141 29 INFO dfs.FSNamesystem: BLOCK* NameSystem.addStoredBlock: blockMap updated: 10.250.7.244:50010 is added to blk_2087586991849997617 size 67108864
081110 114141 34 INFO dfs.FSNamesystem: BLOCK* NameSystem.addStoredBlock: blockMap updated: 10.250.6.4:50010 is added to blk_2087586991849997617 size 67108864
081110 114653 13 INFO dfs.DataBlockScanner: Verification succeeded for blk_-1416130336077518778
081110 114839 10380 INFO dfs.DataNode$DataXceiver: Receiving block blk_97286877753308139 src: /10.250.7.146:54930 dest: /10.250.7.146:50010
081110 114839 10441 INFO dfs.DataNode$DataXceiver: Receiving block blk_97286877753308139 src: /10.250.7.146:38237 dest: /10.250.7.146:50010
081110 114839 29 INFO dfs.FSNamesystem: BLOCK* NameSystem.allocateBlock: /user/root/randtxt2/_temporary/_task_200811101024_0002_m_000385_0/part-00385. blk_97286877753308139
081110 114843 10441 INFO dfs.DataNode$DataXceiver: writeBlock blk_97286877753308139 received exception java.io.IOException: Could not read from stream
081110 114850 13 INFO dfs.DataBlockScanner: Verification succeeded for blk_285488593273205527
081110 115500 10278 INFO dfs.DataNode$DataXceiver: Receiving block blk_-5800886437115575722 src: /10.251.29.239:51590 dest: /10.251.29.239:50010
081110 115500 10409 INFO dfs.DataNode$DataXceiver: Receiving block blk_-5800886437115575722 src: /10.251.29.239:56968 dest: /10.251.29.239:50010
081110 115500 27 INFO dfs.FSNamesystem: BLOCK* NameSystem.allocateBlock: /user/root/randtxt2/_temporary/_task_200811101024_0002_m_000636_0/part-00636. blk_-5800886437115575722
081110 115501 10550 INFO dfs.DataNode$DataXceiver: Receiving block blk_-5800886437115575722 src: /10.251.203.179:38303 dest: /10.251.203.179:50010
081110 115539 10279 INFO dfs.DataNode$PacketResponder: PacketResponder 1 for block blk_-5800886437115575722 terminating
081110 115539 10279 INFO dfs.DataNode$PacketResponder: Received block blk_-5800886437115575722 of size 67108864 from /10.251.29.239
081110 115539 10410 INFO dfs.DataNode$PacketResponder: PacketResponder 2 for block blk_-5800886437115575722 terminating
081110 115539 10410 INFO dfs.DataNode$PacketResponder: Received block blk_-5800886437115575722 of size 67108864 from /10.251.29.239
081110 115539 10551 INFO dfs.DataNode$PacketResponder: PacketResponder 0 for block blk_-5800886437115575722 terminating
081110 115539 10551 INFO dfs.DataNode$PacketResponder: Received block blk_-5800886437115575722 of size 67108864 from /10.251.203.179
081110 115539 26 INFO dfs.FSNamesystem: BLOCK* NameSystem.addStoredBlock: blockMap updated: 10.250.7.146:50010 is added to blk_-5800886437115575722 size 67108864
081110 115539 26 INFO dfs.FSNamesystem: BLOCK* NameSystem.addStoredBlock: blockMap updated: 10.251.29.239:50010 is added to blk_-5800886437115575722 size 67108864
081110 115539 30 INFO dfs.FSNamesystem: BLOCK* NameSystem.addStoredBlock: blockMap updated: 10.251.203.179:50010 is added to blk_-5800886437115575722 size 67108864
081110 120331 10888 INFO dfs.DataNode$DataXceiver: Receiving block blk_1759394385544330241 src: /10.251.195.33:41224 dest: /10.251.195.33:50010
081110 120331 28 INFO dfs.FSNamesystem: BLOCK* NameSystem.allocateBlock: /user/root/randtxt2/_temporary/_task_200811101024_0002_m_000869_0/part-00869. blk_1759394385544330241
081110 120332 10688 INFO dfs.DataNode$DataXceiver: Receiving block blk_1759394385544330241 src: /10.251.195.33:46334 dest: /10.251.195.33:50010
081110 120332 10873 INFO dfs.DataNode$DataXceiver: Receiving block blk_1759394385544330241 src: /10.251.71.97:52987 dest: /10.251.71.97:50010
081110 120411 10689 INFO dfs.DataNode$PacketResponder: PacketResponder 1 for block blk_1759394385544330241 terminating
081110 120411 10689 INFO dfs.DataNode$PacketResponder: Received block blk_1759394385544330241 of size 67108864 from /10.251.195.33
081110 120411 10874 INFO dfs.DataNode$PacketResponder: PacketResponder 0 for block blk_1759394385544330241 terminating
081110 120411 10874 INFO dfs.DataNode$PacketResponder: Received block blk_1759394385544330241 of size 67108864 from /10.251.71.97
081110 120411 10889 INFO dfs.DataNode$PacketResponder: PacketResponder 2 for block blk_1759394385544330241 terminating
081110 120411 10889 INFO dfs.DataNode$PacketResponder: Received block blk_1759394385544330241 of size 67108864 from /10.251.195.33
081110 120411 27 INFO dfs.FSNamesystem: BLOCK* NameSystem.addStoredBlock: blockMap updated: 10.251.30.101:50010 is added to blk_1759394385544330241 size 67108864
081110 120411 29 INFO dfs.FSNamesystem: BLOCK* NameSystem.addStoredBlock: blockMap updated: 10.251.71.97:50010 is added to blk_1759394385544330241 size 67108864
081110 120411 30 INFO dfs.FSNamesystem: BLOCK* NameSystem.addStoredBlock: blockMap updated: 10.251.195.33:50010 is added to blk_1759394385544330241 size 67108864
081110 120530 10664 INFO dfs.DataNode$DataXceiver: Receiving block blk_-8712198768474595123 src: /10.251.197.161:46646 dest: /10.251.197.161:50010
081110 120530 10813 INFO dfs.DataNode$DataXceiver: Receiving block blk_-8712198768474595123 src: /10.251.197.161:42203 dest: /10.251.197.161:50010
081110 120530 28 INFO dfs.FSNamesystem: BLOCK* NameSystem.allocateBlock: /user/root/randtxt2/_temporary/_task_200811101024_0002_m_001090_0/part-01090. blk_-8712198768474595123
081110 120530 8487 INFO dfs.DataNode$DataXceiver: Receiving block blk_-8712198768474595123 src: /10.251.39.64:44693 dest: /10.251.39.64:50010
081110 120621 10665 INFO dfs.DataNode$PacketResponder: PacketResponder 2 for block blk_-8712198768474595123 terminating
081110 120621 10665 INFO dfs.DataNode$PacketResponder: Received block blk_-8712198768474595123 of size 67108864 from /10.251.197.161
081110 120621 10815 INFO dfs.DataNode$PacketResponder: PacketResponder 1 for block blk_-8712198768474595123 terminating
081110 120621 10815 INFO dfs.DataNode$PacketResponder: Received block blk_-8712198768474595123 of size 67108864 from /10.251.197.161
081110 120621 27 INFO dfs.FSNamesystem: BLOCK* NameSystem.addStoredBlock: blockMap updated: 10.251.197.161:50010 is added to blk_-8712198768474595123 size 67108864
081110 120621 33 INFO dfs.FSNamesystem: BLOCK* NameSystem.addStoredBlock: blockMap updated: 10.251.39.160:50010 is added to blk_-8712198768474595123 size 67108864
081110 120621 33 INFO dfs.FSNamesystem: BLOCK* NameSystem.addStoredBlock: blockMap updated: 10.251.39.64:50010 is added to blk_-8712198768474595123 size 67108864
081110 120621 8489 INFO dfs.DataNode$PacketResponder: PacketResponder 0 for block blk_-8712198768474595123 terminating
081110 120621 8489 INFO dfs.DataNode$PacketResponder: Received block blk_-8712198768474595123 of size 67108864 from /10.251.39.64
081110 120701 10660 INFO dfs.DataNode$DataXceiver: Receiving block blk_-837335451734670522 src: /10.250.15.67:41028 dest: /10.250.15.67:50010
081110 120701 29 INFO dfs.FSNamesystem: BLOCK* NameSystem.allocateBlock: /user/root/randtxt2/_temporary/_task_200811101024_0002_m_000825_0/part-00825. blk_-837335451734670522
081110 120705 10745 INFO dfs.DataNode$DataXceiver: Receiving block blk_-837335451734670522 src: /10.250.15.67:34901 dest: /10.250.15.67:50010
081110 120705 10797 INFO dfs.DataNode$DataXceiver: Receiving block blk_-837335451734670522 src: /10.251.67.4:54297 dest: /10.251.67.4:50010
081110 120747 10663 INFO dfs.DataNode$PacketResponder: PacketResponder 2 for block blk_-837335451734670522 terminating
081110 120747 10663 INFO dfs.DataNode$PacketResponder: Received block blk_-837335451734670522 of size 67108864 from /10.250.15.67
081110 120747 10746 INFO dfs.DataNode$PacketResponder: PacketResponder 1 for block blk_-837335451734670522 terminating
081110 120747 10746 INFO dfs.DataNode$PacketResponder: Received block blk_-837335451734670522 of size 67108864 from /10.250.15.67
081110 120747 10798 INFO dfs.DataNode$PacketResponder: PacketResponder 0 for block blk_-837335451734670522 terminating
081110 120747 10798 INFO dfs.DataNode$PacketResponder: Received block blk_-837335451734670522 of size 67108864 from /10.251.67.4
081110 120747 30 INFO dfs.FSNamesystem: BLOCK* NameSystem.addStoredBlock: blockMap updated: 10.251.67.4:50010 is added to blk_-837335451734670522 size 67108864
081110 120747 32 INFO dfs.FSNamesystem: BLOCK* NameSystem.addStoredBlock: blockMap updated: 10.250.15.67:50010 is added to blk_-837335451734670522 size 67108864
081110 120747 33 INFO dfs.FSNamesystem: BLOCK* NameSystem.addStoredBlock: blockMap updated: 10.250.14.38:50010 is added to blk_-837335451734670522 size 67108864
081110 121011 10763 INFO dfs.DataNode$DataXceiver: Receiving block blk_5963495457158414297 src: /10.251.37.240:44238 dest: /10.251.37.240:50010
081110 121011 26 INFO dfs.FSNamesystem: BLOCK* NameSystem.allocateBlock: /user/root/randtxt2/_temporary/_task_200811101024_0002_m_000912_0/part-00912. blk_5963495457158414297
081110 121012 10618 INFO dfs.DataNode$DataXceiver: Receiving block blk_5963495457158414297 src: /10.251.71.240:44478 dest: /10.251.71.240:50010
081110 121012 11039 INFO dfs.DataNode$DataXceiver: Receiving block blk_5963495457158414297 src: /10.251.37.240:52660 dest: /10.251.37.240:50010
081110 121101 35 INFO dfs.FSNamesystem: BLOCK* NameSystem.allocateBlock: /user/root/randtxt2/_temporary/_task_200811101024_0002_m_000975_0/part-00975. blk_-1487613146716399796
081110 121102 10777 INFO dfs.DataNode$DataXceiver: Receiving block blk_-1487613146716399796 src: /10.251.123.99:49648 dest: /10.251.123.99:50010
081110 121102 10871 INFO dfs.DataNode$DataXceiver: Receiving block blk_-1487613146716399796 src: /10.251.30.179:43897 dest: /10.251.30.179:50010
081110 121102 11036 INFO dfs.DataNode$DataXceiver: Receiving block blk_-1487613146716399796 src: /10.251.30.179:34902 dest: /10.251.30.179:50010
081110 121105 10620 INFO dfs.DataNode$PacketResponder: PacketResponder 0 for block blk_5963495457158414297 terminating
081110 121105 10620 INFO dfs.DataNode$PacketResponder: Received block blk_5963495457158414297 of size 67108864 from /10.251.71.240
081110 121105 10765 INFO dfs.DataNode$PacketResponder: PacketResponder 2 for block blk_5963495457158414297 terminating
081110 121105 10765 INFO dfs.DataNode$PacketResponder: Received block blk_5963495457158414297 of size 67108864 from /10.251.37.240
081110 121105 11040 INFO dfs.DataNode$PacketResponder: PacketResponder 1 for block blk_5963495457158414297 terminating
081110 121105 11040 INFO dfs.DataNode$PacketResponder: Received block blk_5963495457158414297 of size 67108864 from /10.251.37.240
081110 121105 28 INFO dfs.FSNamesystem: BLOCK* NameSystem.addStoredBlock: blockMap updated: 10.251.30.134:50010 is added to blk_5963495457158414297 size 67108864
081110 121105 29 INFO dfs.FSNamesystem: BLOCK* NameSystem.addStoredBlock: blockMap updated: 10.251.71.240:50010 is added to blk_5963495457158414297 size 67108864
081110 121105 33 INFO dfs.FSNamesystem: BLOCK* NameSystem.addStoredBlock: blockMap updated: 10.251.37.240:50010 is added to blk_5963495457158414297 size 67108864
081110 121138 10873 INFO dfs.DataNode$PacketResponder: PacketResponder 1 for block blk_-1487613146716399796 terminating
081110 121138 10873 INFO dfs.DataNode$PacketResponder: Received block blk_-1487613146716399796 of size 67108864 from /10.251.30.179
081110 121138 11037 INFO dfs.DataNode$PacketResponder: PacketResponder 2 for block blk_-1487613146716399796 terminating
081110 121138 11037 INFO dfs.DataNode$PacketResponder: Received block blk_-1487613146716399796 of size 67108864 from /10.251.30.179
081110 121138 32 INFO dfs.FSNamesystem: BLOCK* NameSystem.addStoredBlock: blockMap updated: 10.251.123.99:50010 is added to blk_-1487613146716399796 size 67108864
081110 121138 32 INFO dfs.FSNamesystem: BLOCK* NameSystem.addStoredBlock: blockMap updated: 10.251.30.179:50010 is added to blk_-1487613146716399796 size 67108864
081110 121138 35 INFO dfs.FSNamesystem: BLOCK* NameSystem.addStoredBlock: blockMap updated: 10.251.105.189:50010 is added to blk_-1487613146716399796 size 67108864
081110 121139 10778 INFO dfs.DataNode$PacketResponder: PacketResponder 0 for block blk_-1487613146716399796 terminating
081110 121139 10778 INFO dfs.DataNode$PacketResponder: Received block blk_-1487613146716399796 of size 67108864 from /10.251.123.99
081110 121249 10606 INFO dfs.DataNode$DataXceiver: Receiving block blk_-4097469754208342189 src: /10.250.14.224:60110 dest: /10.250.14.224:50010
081110 121249 10647 INFO dfs.DataNode$DataXceiver: Receiving block blk_-4097469754208342189 src: /10.250.10.100:42921 dest: /10.250.10.100:50010
081110 121249 10759 INFO dfs.DataNode$DataXceiver: Receiving block blk_-4097469754208342189 src: /10.250.14.224:53577 dest: /10.250.14.224:50010
081110 121249 35 INFO dfs.FSNamesystem: BLOCK* NameSystem.allocateBlock: /user/root/randtxt2/_temporary/_task_200811101024_0002_m_001392_0/part-01392. blk_-4097469754208342189
081110 121313 10607 INFO dfs.DataNode$PacketResponder: PacketResponder 2 for block blk_-4097469754208342189 terminating
081110 121313 10607 INFO dfs.DataNode$PacketResponder: Received block blk_-4097469754208342189 of size 67108864 from /10.250.14.224
081110 121313 10648 INFO dfs.DataNode$PacketResponder: PacketResponder 0 for block blk_-4097469754208342189 terminating
081110 121313 10648 INFO dfs.DataNode$PacketResponder: Received block blk_-4097469754208342189 of size 67108864 from /10.250.10.100
081110 121313 10760 INFO dfs.DataNode$PacketResponder: PacketResponder 1 for block blk_-4097469754208342189 terminating
081110 121313 10760 INFO dfs.DataNode$PacketResponder: Received block blk_-4097469754208342189 of size 67108864 from /10.250.14.224
081110 121313 27 INFO dfs.FSNamesystem: BLOCK* NameSystem.addStoredBlock: blockMap updated: 10.250.10.100:50010 is added to blk_-4097469754208342189 size 67108864
081110 121313 29 INFO dfs.FSNamesystem: BLOCK* NameSystem.addStoredBlock: blockMap updated: 10.251.123.132:50010 is added to blk_-4097469754208342189 size 67108864
081110 121313 35 INFO dfs.FSNamesystem: BLOCK* NameSystem.addStoredBlock: blockMap updated: 10.250.14.224:50010 is added to blk_-4097469754208342189 size 67108864
081110 121347 13 INFO dfs.DataBlockScanner: Verification succeeded for blk_6731497305744378792
081110 121552 10907 INFO dfs.DataNode$DataXceiver: Receiving block blk_1661657384116690310 src: /10.251.71.146:49786 dest: /10.251.71.146:50010
081110 121552 11045 INFO dfs.DataNode$DataXceiver: Receiving block blk_1661657384116690310 src: /10.251.71.146:55875 dest: /10.251.71.146:50010
081110 121552 11070 INFO dfs.DataNode$DataXceiver: Receiving block blk_1661657384116690310 src: /10.251.106.37:56434 dest: /10.251.106.37:50010
081110 121552 35 INFO dfs.FSNamesystem: BLOCK* NameSystem.allocateBlock: /user/root/randtxt2/_temporary/_task_200811101024_0002_m_001585_0/part-01585. blk_1661657384116690310
081110 121620 10908 INFO dfs.DataNode$PacketResponder: PacketResponder 2 for block blk_1661657384116690310 terminating
081110 121620 10908 INFO dfs.DataNode$PacketResponder: Received block blk_1661657384116690310 of size 67108864 from /10.251.71.146
081110 121620 11046 INFO dfs.DataNode$PacketResponder: PacketResponder 1 for block blk_1661657384116690310 terminating
081110 121620 11046 INFO dfs.DataNode$PacketResponder: Received block blk_1661657384116690310 of size 67108864 from /10.251.71.146
081110 121620 11071 INFO dfs.DataNode$PacketResponder: PacketResponder 0 for block blk_1661657384116690310 terminating
081110 121620 11071 INFO dfs.DataNode$PacketResponder: Received block blk_1661657384116690310 of size 67108864 from /10.251.106.37
081110 121620 30 INFO dfs.FSNamesystem: BLOCK* NameSystem.addStoredBlock: blockMap updated: 10.251.71.146:50010 is added to blk_1661657384116690310 size 67108864
081110 121620 31 INFO dfs.FSNamesystem: BLOCK* NameSystem.addStoredBlock: blockMap updated: 10.251.106.37:50010 is added to blk_1661657384116690310 size 67108864
081110 121620 34 INFO dfs.FSNamesystem: BLOCK* NameSystem.addStoredBlock: blockMap updated: 10.251.66.3:50010 is added to blk_1661657384116690310 size 67108864
081110 122152 10903 INFO dfs.DataNode$DataXceiver: Receiving block blk_7687207479564573867 src: /10.251.67.113:58966 dest: /10.251.67.113:50010
081110 122152 10995 INFO dfs.DataNode$DataXceiver: Receiving block blk_7687207479564573867 src: /10.250.7.244:54182 dest: /10.250.7.244:50010
081110 122152 11011 INFO dfs.DataNode$DataXceiver: Receiving block blk_7687207479564573867 src: /10.251.67.113:53184 dest: /10.251.67.113:50010
081110 122152 26 INFO dfs.FSNamesystem: BLOCK* NameSystem.allocateBlock: /user/root/randtxt2/_temporary/_task_200811101024_0002_m_001636_0/part-01636. blk_7687207479564573867
081110 122236 10904 INFO dfs.DataNode$PacketResponder: PacketResponder 2 for block blk_7687207479564573867 terminating
081110 122236 10904 INFO dfs.DataNode$PacketResponder: Received block blk_7687207479564573867 of size 67108864 from /10.251.67.113
081110 122236 10996 INFO dfs.DataNode$PacketResponder: PacketResponder 0 for block blk_7687207479564573867 terminating
081110 122236 10996 INFO dfs.DataNode$PacketResponder: Received block blk_7687207479564573867 of size 67108864 from /10.250.7.244
081110 122236 11012 INFO dfs.DataNode$PacketResponder: PacketResponder 1 for block blk_7687207479564573867 terminating
081110 122236 11012 INFO dfs.DataNode$PacketResponder: Received block blk_7687207479564573867 of size 67108864 from /10.251.67.113
081110 122236 31 INFO dfs.FSNamesystem: BLOCK* NameSystem.addStoredBlock: blockMap updated: 10.250.7.244:50010 is added to blk_7687207479564573867 size 67108864
081110 122236 33 INFO dfs.FSNamesystem: BLOCK* NameSystem.addStoredBlock: blockMap updated: 10.251.67.113:50010 is added to blk_7687207479564573867 size 67108864
081110 122236 33 INFO dfs.FSNamesystem: BLOCK* NameSystem.addStoredBlock: blockMap updated: 10.251.74.192:50010 is added to blk_7687207479564573867 size 67108864
081110 122817 27 INFO dfs.FSNamesystem: BLOCK* NameSystem.allocateBlock: /user/root/randtxt2/_temporary/_task_200811101024_0002_m_001768_0/part-01768. blk_-2604912937805976340
081110 122818 11102 INFO dfs.DataNode$DataXceiver: Receiving block blk_-2604912937805976340 src: /10.251.197.161:46956 dest: /10.251.197.161:50010
081110 122818 11150 INFO dfs.DataNode$DataXceiver: Receiving block blk_-2604912937805976340 src: /10.251.197.161:53925 dest: /10.251.197.161:50010
081110 122818 11289 INFO dfs.DataNode$DataXceiver: Receiving block blk_-2604912937805976340 src: /10.251.38.214:38207 dest: /10.251.38.214:50010
081110 122853 11291 INFO dfs.DataNode$PacketResponder: PacketResponder 0 for block blk_-2604912937805976340 terminating
081110 122853 11291 INFO dfs.DataNode$PacketResponder: Received block blk_-2604912937805976340 of size 67108864 from /10.251.38.214
081110 122853 29 INFO dfs.FSNamesystem: BLOCK* NameSystem.addStoredBlock: blockMap updated: 10.251.197.226:50010 is added to blk_-2604912937805976340 size 67108864
081110 122854 11103 INFO dfs.DataNode$PacketResponder: PacketResponder 2 for block blk_-2604912937805976340 terminating
081110 122854 11103 INFO dfs.DataNode$PacketResponder: Received block blk_-2604912937805976340 of size 67108864 from /10.251.197.161
081110 122854 11151 INFO dfs.DataNode$PacketResponder: PacketResponder 1 for block blk_-2604912937805976340 terminating
081110 122854 11151 INFO dfs.DataNode$PacketResponder: Received block blk_-2604912937805976340 of size 67108864 from /10.251.197.161
081110 122854 29 INFO dfs.FSNamesystem: BLOCK* NameSystem.addStoredBlock: blockMap updated: 10.251.197.161:50010 is added to blk_-2604912937805976340 size 67108864
081110 122854 35 INFO dfs.FSNamesystem: BLOCK* NameSystem.addStoredBlock: blockMap updated: 10.251.38.214:50010 is added to blk_-2604912937805976340 size 67108864
081110 123027 13 INFO dfs.DataBlockScanner: Verification succeeded for blk_-1416130336077518778
081110 123621 11404 INFO dfs.DataNode$DataXceiver: Receiving block blk_-795763815798955517 src: /10.251.194.213:33722 dest: /10.251.194.213:50010
081110 123621 11447 INFO dfs.DataNode$DataXceiver: Receiving block blk_-795763815798955517 src: /10.250.11.85:55823 dest: /10.250.11.85:50010
081110 123621 11530 INFO dfs.DataNode$DataXceiver: Receiving block blk_-795763815798955517 src: /10.250.11.85:58470 dest: /10.250.11.85:50010
081110 123621 29 INFO dfs.FSNamesystem: BLOCK* NameSystem.allocateBlock: /user/root/randtxt2/_temporary/_task_200811101024_0002_m_001899_1/part-01899. blk_-795763815798955517
081110 123628 11405 INFO dfs.DataNode$PacketResponder: PacketResponder 0 for block blk_-795763815798955517 terminating
081110 123628 11405 INFO dfs.DataNode$PacketResponder: Received block blk_-795763815798955517 of size 13233673 from /10.251.194.213
081110 123628 11448 INFO dfs.DataNode$PacketResponder: PacketResponder 2 for block blk_-795763815798955517 terminating
081110 123628 11448 INFO dfs.DataNode$PacketResponder: Received block blk_-795763815798955517 of size 13233673 from /10.250.11.85
081110 123628 11531 INFO dfs.DataNode$PacketResponder: PacketResponder 1 for block blk_-795763815798955517 terminating
081110 123628 11531 INFO dfs.DataNode$PacketResponder: Received block blk_-795763815798955517 of size 13233673 from /10.250.11.85
081110 123628 30 INFO dfs.FSNamesystem: BLOCK* NameSystem.addStoredBlock: blockMap updated: 10.250.11.85:50010 is added to blk_-795763815798955517 size 13233673
081110 123628 32 INFO dfs.FSNamesystem: BLOCK* NameSystem.addStoredBlock: blockMap updated: 10.250.17.225:50010 is added to blk_-795763815798955517 size 13233673
081110 123628 32 INFO dfs.FSNamesystem: BLOCK* NameSystem.addStoredBlock: blockMap updated: 10.251.194.213:50010 is added to blk_-795763815798955517 size 13233673
081110 124051 35 INFO dfs.FSNamesystem: BLOCK* NameSystem.delete: blk_-795763815798955517 is added to invalidSet of 10.250.11.85:50010
081110 124051 35 INFO dfs.FSNamesystem: BLOCK* NameSystem.delete: blk_-795763815798955517 is added to invalidSet of 10.250.17.225:50010
081110 124051 35 INFO dfs.FSNamesystem: BLOCK* NameSystem.delete: blk_-795763815798955517 is added to invalidSet of 10.251.194.213:50010
081110 124059 19 INFO dfs.FSDataset: Deleting block blk_-795763815798955517 file /mnt/hadoop/dfs/data/current/subdir6/blk_-795763815798955517
081110 124100 19 INFO dfs.FSDataset: Deleting block blk_-795763815798955517 file /mnt/hadoop/dfs/data/current/subdir26/blk_-795763815798955517
081110 124115 19 INFO dfs.FSDataset: Deleting block blk_-795763815798955517 file /mnt/hadoop/dfs/data/current/subdir26/blk_-795763815798955517
081110 124202 11345 WARN dfs.DataNode$DataXceiver: 10.251.90.134:50010:Got exception while serving blk_285488593273205527 to /10.251.90.134:
081110 124211 11346 INFO dfs.DataNode$DataXceiver: 10.251.90.134:50010 Served block blk_285488593273205527 to /10.251.90.134
081110 125139 11489 WARN dfs.DataNode$DataXceiver: 10.251.111.130:50010:Got exception while serving blk_-1416130336077518778 to /10.250.19.227:
081110 125327 11486 WARN dfs.DataNode$DataXceiver: 10.251.194.102:50010:Got exception while serving blk_-1416130336077518778 to /10.251.194.102:
081110 125401 11487 INFO dfs.DataNode$DataXceiver: 10.251.194.102:50010 Served block blk_-1416130336077518778 to /10.251.194.102
081110 125738 11820 WARN dfs.DataNode$DataXceiver: 10.251.198.33:50010:Got exception while serving blk_-8028419203262447911 to /10.251.198.33:
081110 125756 11821 INFO dfs.DataNode$DataXceiver: 10.251.198.33:50010 Served block blk_-8028419203262447911 to /10.251.198.33
081110 125821 11826 WARN dfs.DataNode$DataXceiver: 10.251.198.33:50010:Got exception while serving blk_-8028419203262447911 to /10.251.91.229:
081110 125958 11305 WARN dfs.DataNode$DataXceiver: 10.251.109.236:50010:Got exception while serving blk_6731497305744378792 to /10.250.14.38:
081110 130003 11306 INFO dfs.DataNode$DataXceiver: 10.251.109.236:50010 Served block blk_6731497305744378792 to /10.250.14.38
081110 130051 11323 WARN dfs.DataNode$DataXceiver: 10.251.109.236:50010:Got exception while serving blk_6731497305744378792 to /10.251.109.236:
081110 130343 11721 WARN dfs.DataNode$DataXceiver: 10.251.35.1:50010:Got exception while serving blk_4921365742913001999 to /10.251.197.226:
081110 130351 11712 WARN dfs.DataNode$DataXceiver: 10.251.110.196:50010:Got exception while serving blk_4921365742913001999 to /10.251.197.226:
081110 130407 11713 INFO dfs.DataNode$DataXceiver: 10.251.110.196:50010 Served block blk_4921365742913001999 to /10.251.197.226
081110 130729 13 INFO dfs.DataBlockScanner: Verification succeeded for blk_-8028419203262447911
081110 131156 11916 WARN dfs.DataNode$DataXceiver: 10.251.31.85:50010:Got exception while serving blk_-3011614520855474984 to /10.250.14.224:
081110 131209 11917 INFO dfs.DataNode$DataXceiver: 10.251.31.85:50010 Served block blk_-3011614520855474984 to /10.250.14.224
081110 131317 11947 WARN dfs.DataNode$DataXceiver: 10.251.31.85:50010:Got exception while serving blk_-3011614520855474984 to /10.251.31.160:
081110 131607 11862 WARN dfs.DataNode$DataXceiver: 10.251.199.150:50010:Got exception while serving blk_4181481896456927575 to /10.251.195.52:
081110 131642 11863 INFO dfs.DataNode$DataXceiver: 10.251.199.150:50010 Served block blk_4181481896456927575 to /10.251.195.52
081110 131705 11721 WARN dfs.DataNode$DataXceiver: 10.251.91.229:50010:Got exception while serving blk_4181481896456927575 to /10.251.90.239:
081110 132617 11906 WARN dfs.DataNode$DataXceiver: 10.251.123.1:50010:Got exception while serving blk_5288787164987522720 to /10.251.123.1:
081110 132630 11914 WARN dfs.DataNode$DataXceiver: 10.251.123.1:50010:Got exception while serving blk_5288787164987522720 to /10.251.123.1:
081110 132653 11915 INFO dfs.DataNode$DataXceiver: 10.251.123.1:50010 Served block blk_5288787164987522720 to /10.251.123.1
081110 134117 10898 WARN dfs.DataNode$DataXceiver: 10.251.107.50:50010:Got exception while serving blk_4567887863537169495 to /10.251.127.47:
081110 134233 12032 WARN dfs.DataNode$DataXceiver: 10.251.65.237:50010:Got exception while serving blk_4567887863537169495 to /10.251.193.175:
081110 134424 10899 INFO dfs.DataNode$DataXceiver: 10.251.107.50:50010 Served block blk_4567887863537169495 to /10.251.127.47
081110 134523 13 INFO dfs.DataBlockScanner: Verification succeeded for blk_-8028419203262447911
081110 140027 12180 WARN dfs.DataNode$DataXceiver: 10.251.110.8:50010:Got exception while serving blk_285488593273205527 to /10.251.203.166:
081110 142308 13 INFO dfs.DataBlockScanner: Verification succeeded for blk_2087586991849997617
081110 143314 12119 INFO dfs.DataNode$DataXceiver: Receiving block blk_-3564782315087602916 src: /10.250.19.16:53920 dest: /10.250.19.16:50010
081110 143314 12372 INFO dfs.DataNode$DataXceiver: Receiving block blk_-3564782315087602916 src: /10.250.5.161:35111 dest: /10.250.5.161:50010
081110 143314 12489 INFO dfs.DataNode$DataXceiver: Receiving block blk_-3564782315087602916 src: /10.250.19.16:60165 dest: /10.250.19.16:50010
081110 143314 34 INFO dfs.FSNamesystem: BLOCK* NameSystem.allocateBlock: /user/root/sortrand2/_temporary/_task_200811101024_0003_r_000246_0/part-00246. blk_-3564782315087602916
081110 143328 12120 INFO dfs.DataNode$PacketResponder: PacketResponder 1 for block blk_-3564782315087602916 terminating
081110 143328 12120 INFO dfs.DataNode$PacketResponder: Received block blk_-3564782315087602916 of size 67108864 from /10.250.19.16
081110 143328 12373 INFO dfs.DataNode$PacketResponder: PacketResponder 0 for block blk_-3564782315087602916 terminating
081110 143328 12373 INFO dfs.DataNode$PacketResponder: Received block blk_-3564782315087602916 of size 67108864 from /10.250.5.161
081110 143328 12490 INFO dfs.DataNode$PacketResponder: PacketResponder 2 for block blk_-3564782315087602916 terminating
081110 143328 12490 INFO dfs.DataNode$PacketResponder: Received block blk_-3564782315087602916 of size 67108864 from /10.250.19.16
081110 143328 31 INFO dfs.FSNamesystem: BLOCK* NameSystem.addStoredBlock: blockMap updated: 10.251.25.237:50010 is added to blk_-3564782315087602916 size 67108864
081110 143328 32 INFO dfs.FSNamesystem: BLOCK* NameSystem.addStoredBlock: blockMap updated: 10.250.5.161:50010 is added to blk_-3564782315087602916 size 67108864
081110 143328 34 INFO dfs.FSNamesystem: BLOCK* NameSystem.addStoredBlock: blockMap updated: 10.250.19.16:50010 is added to blk_-3564782315087602916 size 67108864
081110 143617 12377 INFO dfs.DataNode$DataXceiver: Receiving block blk_-3062122221573712550 src: /10.251.121.224:60832 dest: /10.251.121.224:50010
081110 143617 12532 INFO dfs.DataNode$DataXceiver: Receiving block blk_-3062122221573712550 src: /10.251.121.224:49711 dest: /10.251.121.224:50010
081110 143617 33 INFO dfs.FSNamesystem: BLOCK* NameSystem.allocateBlock: /user/root/sortrand2/_temporary/_task_200811101024_0003_r_000341_0/part-00341. blk_-3062122221573712550
081110 143618 12456 INFO dfs.DataNode$DataXceiver: Receiving block blk_-3062122221573712550 src: /10.251.74.134:55412 dest: /10.251.74.134:50010
081110 143641 12378 INFO dfs.DataNode$PacketResponder: PacketResponder 2 for block blk_-3062122221573712550 terminating
081110 143641 12378 INFO dfs.DataNode$PacketResponder: Received block blk_-3062122221573712550 of size 67108864 from /10.251.121.224
081110 143641 12457 INFO dfs.DataNode$PacketResponder: PacketResponder 0 for block blk_-3062122221573712550 terminating
081110 143641 12457 INFO dfs.DataNode$PacketResponder: Received block blk_-3062122221573712550 of size 67108864 from /10.251.74.134
081110 143641 12533 INFO dfs.DataNode$PacketResponder: PacketResponder 1 for block blk_-3062122221573712550 terminating
081110 143641 12533 INFO dfs.DataNode$PacketResponder: Received block blk_-3062122221573712550 of size 67108864 from /10.251.121.224
081110 143641 32 INFO dfs.FSNamesystem: BLOCK* NameSystem.addStoredBlock: blockMap updated: 10.251.121.224:50010 is added to blk_-3062122221573712550 size 67108864
081110 143641 33 INFO dfs.FSNamesystem: BLOCK* NameSystem.addStoredBlock: blockMap updated: 10.250.7.32:50010 is added to blk_-3062122221573712550 size 67108864
081110 143641 35 INFO dfs.FSNamesystem: BLOCK* NameSystem.addStoredBlock: blockMap updated: 10.251.74.134:50010 is added to blk_-3062122221573712550 size 67108864
081110 144448 12422 INFO dfs.DataNode$DataXceiver: Receiving block blk_1385048864887983805 src: /10.250.10.100:58758 dest: /10.250.10.100:50010
081110 144448 30 INFO dfs.FSNamesystem: BLOCK* NameSystem.allocateBlock: /user/root/sortrand2/_temporary/_task_200811101024_0003_r_000320_0/part-00320. blk_1385048864887983805
081110 144449 12212 INFO dfs.DataNode$DataXceiver: Receiving block blk_1385048864887983805 src: /10.250.10.100:60857 dest: /10.250.10.100:50010
081110 144449 12601 INFO dfs.DataNode$DataXceiver: Receiving block blk_1385048864887983805 src: /10.251.30.134:43187 dest: /10.251.30.134:50010
081110 144528 12215 INFO dfs.DataNode$PacketResponder: PacketResponder 1 for block blk_1385048864887983805 terminating
081110 144528 12215 INFO dfs.DataNode$PacketResponder: Received block blk_1385048864887983805 of size 67108864 from /10.250.10.100
081110 144528 12426 INFO dfs.DataNode$PacketResponder: PacketResponder 2 for block blk_1385048864887983805 terminating
081110 144528 12426 INFO dfs.DataNode$PacketResponder: Received block blk_1385048864887983805 of size 67108864 from /10.250.10.100
081110 144528 12605 INFO dfs.DataNode$PacketResponder: PacketResponder 0 for block blk_1385048864887983805 terminating
081110 144528 12605 INFO dfs.DataNode$PacketResponder: Received block blk_1385048864887983805 of size 67108864 from /10.251.30.134
081110 144528 29 INFO dfs.FSNamesystem: BLOCK* NameSystem.addStoredBlock: blockMap updated: 10.250.10.100:50010 is added to blk_1385048864887983805 size 67108864
081110 144528 33 INFO dfs.FSNamesystem: BLOCK* NameSystem.addStoredBlock: blockMap updated: 10.251.30.134:50010 is added to blk_1385048864887983805 size 67108864
081110 144528 34 INFO dfs.FSNamesystem: BLOCK* NameSystem.addStoredBlock: blockMap updated: 10.251.74.79:50010 is added to blk_1385048864887983805 size 67108864
081110 144533 12528 INFO dfs.DataNode$DataXceiver: Receiving block blk_-7381120568125775060 src: /10.251.66.192:51166 dest: /10.251.66.192:50010
081110 144533 12621 INFO dfs.DataNode$DataXceiver: Receiving block blk_-7381120568125775060 src: /10.251.66.192:47240 dest: /10.251.66.192:50010
081110 144533 28 INFO dfs.FSNamesystem: BLOCK* NameSystem.allocateBlock: /user/root/sortrand2/_temporary/_task_200811101024_0003_r_000256_0/part-00256. blk_-7381120568125775060
081110 144536 12342 INFO dfs.DataNode$DataXceiver: Receiving block blk_-7381120568125775060 src: /10.251.73.220:37167 dest: /10.251.73.220:50010
081110 144630 12343 INFO dfs.DataNode$PacketResponder: PacketResponder 0 for block blk_-7381120568125775060 terminating
081110 144630 12343 INFO dfs.DataNode$PacketResponder: Received block blk_-7381120568125775060 of size 67108864 from /10.251.73.220
081110 144630 12529 INFO dfs.DataNode$PacketResponder: PacketResponder 1 for block blk_-7381120568125775060 terminating
081110 144630 12529 INFO dfs.DataNode$PacketResponder: Received block blk_-7381120568125775060 of size 67108864 from /10.251.66.192
081110 144630 12624 INFO dfs.DataNode$PacketResponder: PacketResponder 2 for block blk_-7381120568125775060 terminating
081110 144630 12624 INFO dfs.DataNode$PacketResponder: Received block blk_-7381120568125775060 of size 67108864 from /10.251.66.192
081110 144630 26 INFO dfs.FSNamesystem: BLOCK* NameSystem.addStoredBlock: blockMap updated: 10.251.66.192:50010 is added to blk_-7381120568125775060 size 67108864
081110 144630 30 INFO dfs.FSNamesystem: BLOCK* NameSystem.addStoredBlock: blockMap updated: 10.251.73.220:50010 is added to blk_-7381120568125775060 size 67108864
081110 144630 31 INFO dfs.FSNamesystem: BLOCK* NameSystem.addStoredBlock: blockMap updated: 10.251.127.243:50010 is added to blk_-7381120568125775060 size 67108864
081110 144922 12238 INFO dfs.DataNode$DataXceiver: Receiving block blk_6033761786785152926 src: /10.251.202.134:43592 dest: /10.251.202.134:50010
081110 144922 12630 INFO dfs.DataNode$DataXceiver: Receiving block blk_6033761786785152926 src: /10.251.202.134:42144 dest: /10.251.202.134:50010
081110 144922 13006 INFO dfs.DataNode$DataXceiver: Receiving block blk_6033761786785152926 src: /10.251.91.159:35962 dest: /10.251.91.159:50010
081110 144922 28 INFO dfs.FSNamesystem: BLOCK* NameSystem.allocateBlock: /user/root/sortrand2/_temporary/_task_200811101024_0003_r_000304_0/part-00304. blk_6033761786785152926
081110 144944 12239 INFO dfs.DataNode$PacketResponder: PacketResponder 2 for block blk_6033761786785152926 terminating
081110 144944 12239 INFO dfs.DataNode$PacketResponder: Received block blk_6033761786785152926 of size 67108864 from /10.251.202.134
081110 144944 12631 INFO dfs.DataNode$PacketResponder: PacketResponder 1 for block blk_6033761786785152926 terminating
081110 144944 12631 INFO dfs.DataNode$PacketResponder: Received block blk_6033761786785152926 of size 67108864 from /10.251.202.134
081110 144944 13007 INFO dfs.DataNode$PacketResponder: PacketResponder 0 for block blk_6033761786785152926 terminating
081110 144944 13007 INFO dfs.DataNode$PacketResponder: Received block blk_6033761786785152926 of size 67108864 from /10.251.91.159
081110 144944 29 INFO dfs.FSNamesystem: BLOCK* NameSystem.addStoredBlock: blockMap updated: 10.251.91.159:50010 is added to blk_6033761786785152926 size 67108864
081110 144944 33 INFO dfs.FSNamesystem: BLOCK* NameSystem.addStoredBlock: blockMap updated: 10.251.202.134:50010 is added to blk_6033761786785152926 size 67108864
081110 144944 34 INFO dfs.FSNamesystem: BLOCK* NameSystem.addStoredBlock: blockMap updated: 10.251.198.33:50010 is added to blk_6033761786785152926 size 67108864
081110 145110 12388 INFO dfs.DataNode$DataXceiver: Receiving block blk_5932789222600878224 src: /10.251.106.214:55649 dest: /10.251.106.214:50010
081110 145110 26 INFO dfs.FSNamesystem: BLOCK* NameSystem.allocateBlock: /user/root/sortrand2/_temporary/_task_200811101024_0003_r_000026_0/part-00026. blk_5932789222600878224
081110 145127 12410 INFO dfs.DataNode$DataXceiver: Receiving block blk_-1840559768019637713 src: /10.251.26.131:48529 dest: /10.251.26.131:50010
081110 145127 12626 INFO dfs.DataNode$DataXceiver: Receiving block blk_-1840559768019637713 src: /10.251.70.37:36070 dest: /10.251.70.37:50010
081110 145127 12686 INFO dfs.DataNode$DataXceiver: Receiving block blk_-1840559768019637713 src: /10.251.70.37:55497 dest: /10.251.70.37:50010
081110 145127 30 INFO dfs.FSNamesystem: BLOCK* NameSystem.allocateBlock: /user/root/sortrand2/_temporary/_task_200811101024_0003_r_000152_0/part-00152. blk_-1840559768019637713
081110 145158 12411 INFO dfs.DataNode$PacketResponder: PacketResponder 0 for block blk_-1840559768019637713 terminating
081110 145158 12411 INFO dfs.DataNode$PacketResponder: Received block blk_-1840559768019637713 of size 67108864 from /10.251.26.131
081110 145158 12627 INFO dfs.DataNode$PacketResponder: PacketResponder 1 for block blk_-1840559768019637713 terminating
081110 145158 12627 INFO dfs.DataNode$PacketResponder: Received block blk_-1840559768019637713 of size 67108864 from /10.251.70.37
081110 145158 12687 INFO dfs.DataNode$PacketResponder: PacketResponder 2 for block blk_-1840559768019637713 terminating
081110 145158 12687 INFO dfs.DataNode$PacketResponder: Received block blk_-1840559768019637713 of size 67108864 from /10.251.70.37
081110 145158 32 INFO dfs.FSNamesystem: BLOCK* NameSystem.addStoredBlock: blockMap updated: 10.251.26.131:50010 is added to blk_-1840559768019637713 size 67108864
081110 145158 35 INFO dfs.FSNamesystem: BLOCK* NameSystem.addStoredBlock: blockMap updated: 10.251.70.37:50010 is added to blk_-1840559768019637713 size 67108864
081110 145158 35 INFO dfs.FSNamesystem: BLOCK* NameSystem.addStoredBlock: blockMap updated: 10.251.75.228:50010 is added to blk_-1840559768019637713 size 67108864
081110 150155 13182 INFO dfs.DataNode$DataXceiver: Receiving block blk_-5664075004822535833 src: /10.251.126.83:35260 dest: /10.251.126.83:50010
081110 150155 35 INFO dfs.FSNamesystem: BLOCK* NameSystem.allocateBlock: /user/root/sortrand2/_temporary/_task_200811101024_0003_r_000342_0/part-00342. blk_-5664075004822535833
081110 150156 12897 INFO dfs.DataNode$DataXceiver: Receiving block blk_-5664075004822535833 src: /10.251.126.83:55324 dest: /10.251.126.83:50010
081110 150156 12927 INFO dfs.DataNode$DataXceiver: Receiving block blk_-5664075004822535833 src: /10.251.121.224:46309 dest: /10.251.121.224:50010
081110 150217 12898 INFO dfs.DataNode$PacketResponder: PacketResponder 1 for block blk_-5664075004822535833 terminating
081110 150217 12898 INFO dfs.DataNode$PacketResponder: Received block blk_-5664075004822535833 of size 67108864 from /10.251.126.83
081110 150217 12928 INFO dfs.DataNode$PacketResponder: PacketResponder 0 for block blk_-5664075004822535833 terminating
081110 150217 12928 INFO dfs.DataNode$PacketResponder: Received block blk_-5664075004822535833 of size 67108864 from /10.251.121.224
081110 150217 13183 INFO dfs.DataNode$PacketResponder: PacketResponder 2 for block blk_-5664075004822535833 terminating
081110 150217 13183 INFO dfs.DataNode$PacketResponder: Received block blk_-5664075004822535833 of size 67108864 from /10.251.126.83
081110 150217 31 INFO dfs.FSNamesystem: BLOCK* NameSystem.addStoredBlock: blockMap updated: 10.251.194.129:50010 is added to blk_-5664075004822535833 size 67108864
081110 150217 32 INFO dfs.FSNamesystem: BLOCK* NameSystem.addStoredBlock: blockMap updated: 10.251.121.224:50010 is added to blk_-5664075004822535833 size 67108864
081110 150217 32 INFO dfs.FSNamesystem: BLOCK* NameSystem.addStoredBlock: blockMap updated: 10.251.126.83:50010 is added to blk_-5664075004822535833 size 67108864
081110 151110 13040 INFO dfs.DataNode$DataXceiver: Receiving block blk_-6015566154637259263 src: /10.251.193.175:43481 dest: /10.251.193.175:50010
081110 151110 13213 INFO dfs.DataNode$DataXceiver: Receiving block blk_-6015566154637259263 src: /10.251.193.175:47704 dest: /10.251.193.175:50010
081110 151110 13332 INFO dfs.DataNode$DataXceiver: Receiving block blk_-6015566154637259263 src: /10.251.107.98:38837 dest: /10.251.107.98:50010
081110 151110 33 INFO dfs.FSNamesystem: BLOCK* NameSystem.allocateBlock: /user/root/sortrand2/_temporary/_task_200811101024_0003_r_000058_0/part-00058. blk_-6015566154637259263
081110 151138 13041 INFO dfs.DataNode$PacketResponder: PacketResponder 1 for block blk_-6015566154637259263 terminating
081110 151138 13041 INFO dfs.DataNode$PacketResponder: Received block blk_-6015566154637259263 of size 67108864 from /10.251.193.175
081110 151138 13214 INFO dfs.DataNode$PacketResponder: PacketResponder 2 for block blk_-6015566154637259263 terminating
081110 151138 13214 INFO dfs.DataNode$PacketResponder: Received block blk_-6015566154637259263 of size 67108864 from /10.251.193.175
081110 151138 13335 INFO dfs.DataNode$PacketResponder: PacketResponder 0 for block blk_-6015566154637259263 terminating
081110 151138 13335 INFO dfs.DataNode$PacketResponder: Received block blk_-6015566154637259263 of size 67108864 from /10.251.107.98
081110 151138 27 INFO dfs.FSNamesystem: BLOCK* NameSystem.addStoredBlock: blockMap updated: 10.251.194.245:50010 is added to blk_-6015566154637259263 size 67108864
081110 151138 30 INFO dfs.FSNamesystem: BLOCK* NameSystem.addStoredBlock: blockMap updated: 10.251.193.175:50010 is added to blk_-6015566154637259263 size 67108864
081110 151138 31 INFO dfs.FSNamesystem: BLOCK* NameSystem.addStoredBlock: blockMap updated: 10.251.107.98:50010 is added to blk_-6015566154637259263 size 67108864
081110 151441 12970 INFO dfs.DataNode$DataXceiver: Receiving block blk_-7249993299520138778 src: /10.251.111.37:33667 dest: /10.251.111.37:50010
081110 151441 12979 INFO dfs.DataNode$DataXceiver: Receiving block blk_-7249993299520138778 src: /10.251.111.37:36430 dest: /10.251.111.37:50010
081110 151441 13297 INFO dfs.DataNode$DataXceiver: Receiving block blk_-7249993299520138778 src: /10.251.123.132:55581 dest: /10.251.123.132:50010
081110 151441 28 INFO dfs.FSNamesystem: BLOCK* NameSystem.allocateBlock: /user/root/sortrand2/_temporary/_task_200811101024_0003_r_000021_0/part-00021. blk_-7249993299520138778
081110 151455 12971 INFO dfs.DataNode$PacketResponder: PacketResponder 1 for block blk_-7249993299520138778 terminating
081110 151455 12971 INFO dfs.DataNode$PacketResponder: Received block blk_-7249993299520138778 of size 67108864 from /10.251.111.37
081110 151455 12980 INFO dfs.DataNode$PacketResponder: PacketResponder 2 for block blk_-7249993299520138778 terminating
081110 151455 12980 INFO dfs.DataNode$PacketResponder: Received block blk_-7249993299520138778 of size 67108864 from /10.251.111.37
081110 151455 13298 INFO dfs.DataNode$PacketResponder: PacketResponder 0 for block blk_-7249993299520138778 terminating
081110 151455 13298 INFO dfs.DataNode$PacketResponder: Received block blk_-7249993299520138778 of size 67108864 from /10.251.123.132
081110 151455 27 INFO dfs.FSNamesystem: BLOCK* NameSystem.addStoredBlock: blockMap updated: 10.251.111.37:50010 is added to blk_-7249993299520138778 size 67108864
081110 151455 31 INFO dfs.FSNamesystem: BLOCK* NameSystem.addStoredBlock: blockMap updated: 10.251.106.37:50010 is added to blk_-7249993299520138778 size 67108864
081110 151455 35 INFO dfs.FSNamesystem: BLOCK* NameSystem.addStoredBlock: blockMap updated: 10.251.123.132:50010 is added to blk_-7249993299520138778 size 67108864
081110 151642 13239 INFO dfs.DataNode$DataXceiver: Receiving block blk_370143206656705276 src: /10.251.38.197:45764 dest: /10.251.38.197:50010
081110 151642 13298 INFO dfs.DataNode$DataXceiver: Receiving block blk_370143206656705276 src: /10.250.6.4:55140 dest: /10.250.6.4:50010
081110 151642 13340 INFO dfs.DataNode$DataXceiver: Receiving block blk_370143206656705276 src: /10.251.38.197:46159 dest: /10.251.38.197:50010
081110 151642 30 INFO dfs.FSNamesystem: BLOCK* NameSystem.allocateBlock: /user/root/sortrand2/_temporary/_task_200811101024_0003_r_000019_0/part-00019. blk_370143206656705276
081110 151658 13240 INFO dfs.DataNode$PacketResponder: PacketResponder 1 for block blk_370143206656705276 terminating
081110 151658 13240 INFO dfs.DataNode$PacketResponder: Received block blk_370143206656705276 of size 67108864 from /10.251.38.197
081110 151658 13299 INFO dfs.DataNode$PacketResponder: PacketResponder 0 for block blk_370143206656705276 terminating
081110 151658 13299 INFO dfs.DataNode$PacketResponder: Received block blk_370143206656705276 of size 67108864 from /10.250.6.4
081110 151658 13341 INFO dfs.DataNode$PacketResponder: PacketResponder 2 for block blk_370143206656705276 terminating
081110 151658 13341 INFO dfs.DataNode$PacketResponder: Received block blk_370143206656705276 of size 67108864 from /10.251.38.197
081110 151658 26 INFO dfs.FSNamesystem: BLOCK* NameSystem.addStoredBlock: blockMap updated: 10.251.38.197:50010 is added to blk_370143206656705276 size 67108864
081110 151658 31 INFO dfs.FSNamesystem: BLOCK* NameSystem.addStoredBlock: blockMap updated: 10.250.6.4:50010 is added to blk_370143206656705276 size 67108864
081110 151658 31 INFO dfs.FSNamesystem: BLOCK* NameSystem.addStoredBlock: blockMap updated: 10.251.38.53:50010 is added to blk_370143206656705276 size 67108864
081110 161750 13 INFO dfs.DataBlockScanner: Verification succeeded for blk_-8028419203262447911
081110 163908 13 INFO dfs.DataBlockScanner: Verification succeeded for blk_-1416130336077518778
081110 164847 13647 INFO dfs.DataNode$DataXceiver: 10.250.7.32:50010 Served block blk_9180460506127105903 to /10.251.25.237
081110 164908 13688 INFO dfs.DataNode$DataXceiver: 10.251.197.226:50010 Served block blk_9180460506127105903 to /10.251.197.226
081110 165116 13694 WARN dfs.DataNode$DataXceiver: 10.251.197.226:50010:Got exception while serving blk_9180460506127105903 to /10.250.7.244:
081110 165713 13630 INFO dfs.DataNode$DataXceiver: 10.251.70.211:50010 Served block blk_2087586991849997617 to /10.251.70.211
081110 165929 13593 INFO dfs.DataNode$DataXceiver: 10.250.6.4:50010 Served block blk_2087586991849997617 to /10.251.106.50
081110 165956 13640 WARN dfs.DataNode$DataXceiver: 10.251.70.211:50010:Got exception while serving blk_2087586991849997617 to /10.251.65.203:
081110 173256 13389 INFO dfs.DataNode$DataXceiver: 10.251.203.179:50010 Served block blk_-5800886437115575722 to /10.251.203.179
081110 173450 13734 INFO dfs.DataNode$DataXceiver: 10.251.29.239:50010 Served block blk_-5800886437115575722 to /10.250.11.53
081110 173613 13752 WARN dfs.DataNode$DataXceiver: 10.251.29.239:50010:Got exception while serving blk_-5800886437115575722 to /10.251.29.239:
081110 175300 13767 WARN dfs.DataNode$DataXceiver: 10.251.67.4:50010:Got exception while serving blk_-837335451734670522 to /10.251.193.175:
081110 175501 13896 INFO dfs.DataNode$DataXceiver: 10.250.14.38:50010 Served block blk_-837335451734670522 to /10.250.14.38
081110 175727 13893 INFO dfs.DataNode$DataXceiver: 10.250.14.38:50010 Served block blk_-837335451734670522 to /10.251.65.237
081110 180001 14026 WARN dfs.DataNode$DataXceiver: 10.251.30.101:50010:Got exception while serving blk_1759394385544330241 to /10.250.5.161:
081110 180026 14034 INFO dfs.DataNode$DataXceiver: 10.251.30.101:50010 Served block blk_1759394385544330241 to /10.251.30.101
081110 180128 14023 INFO dfs.DataNode$DataXceiver: 10.251.30.101:50010 Served block blk_1759394385544330241 to /10.251.106.50
081110 180618 14099 INFO dfs.DataNode$DataXceiver: 10.251.71.240:50010 Served block blk_5963495457158414297 to /10.251.71.240
081110 180818 13632 INFO dfs.DataNode$DataXceiver: 10.251.30.134:50010 Served block blk_5963495457158414297 to /10.251.201.204
081110 181014 14113 WARN dfs.DataNode$DataXceiver: 10.251.71.240:50010:Got exception while serving blk_5963495457158414297 to /10.250.10.100:
081110 181348 13760 WARN dfs.DataNode$DataXceiver: 10.251.30.179:50010:Got exception while serving blk_-1487613146716399796 to /10.251.74.227:
081110 181406 13699 INFO dfs.DataNode$DataXceiver: 10.251.123.99:50010 Served block blk_-1487613146716399796 to /10.251.123.99
081110 181658 13762 INFO dfs.DataNode$DataXceiver: 10.251.30.179:50010 Served block blk_-1487613146716399796 to /10.251.203.4
081110 182548 13794 INFO dfs.DataNode$DataXceiver: 10.251.197.161:50010 Served block blk_-8712198768474595123 to /10.251.106.50
081110 182823 13820 INFO dfs.DataNode$DataXceiver: 10.251.197.161:50010 Served block blk_-8712198768474595123 to /10.251.197.161
081110 182941 13943 WARN dfs.DataNode$DataXceiver: 10.251.39.64:50010:Got exception while serving blk_-8712198768474595123 to /10.251.30.179:
081110 190339 13979 INFO dfs.DataNode$DataXceiver: 10.250.10.100:50010 Served block blk_-4097469754208342189 to /10.250.10.100
081110 190607 13772 WARN dfs.DataNode$DataXceiver: 10.250.14.224:50010:Got exception while serving blk_-4097469754208342189 to /10.250.14.224:
081110 190759 13762 INFO dfs.DataNode$DataXceiver: 10.250.14.224:50010 Served block blk_-4097469754208342189 to /10.251.110.68
081110 192915 14297 INFO dfs.DataNode$DataXceiver: 10.251.106.37:50010 Served block blk_1661657384116690310 to /10.251.106.37
081110 193114 14111 INFO dfs.DataNode$DataXceiver: 10.251.71.146:50010 Served block blk_1661657384116690310 to /10.251.71.146
081110 193331 14214 INFO dfs.DataNode$DataXceiver: 10.251.74.192:50010 Served block blk_7687207479564573867 to /10.251.74.192
081110 193645 14028 INFO dfs.DataNode$DataXceiver: 10.251.67.113:50010 Served block blk_7687207479564573867 to /10.251.67.113
081110 193647 14039 WARN dfs.DataNode$DataXceiver: 10.251.67.113:50010:Got exception while serving blk_7687207479564573867 to /10.251.214.18:
081110 195025 14383 INFO dfs.DataNode$DataXceiver: 10.251.197.226:50010 Served block blk_-2604912937805976340 to /10.251.197.226
081110 195127 14248 WARN dfs.DataNode$DataXceiver: 10.251.38.214:50010:Got exception while serving blk_-2604912937805976340 to /10.250.15.67:
081110 195324 14137 INFO dfs.DataNode$DataXceiver: 10.251.197.161:50010 Served block blk_-2604912937805976340 to /10.251.198.33
081110 203558 13 INFO dfs.DataBlockScanner: Verification succeeded for blk_-3564782315087602916
081110 210113 28 INFO dfs.FSNamesystem: BLOCK* NameSystem.delete: blk_370143206656705276 is added to invalidSet of 10.250.6.4:50010
081110 210113 28 INFO dfs.FSNamesystem: BLOCK* NameSystem.delete: blk_370143206656705276 is added to invalidSet of 10.251.38.197:50010
081110 210113 28 INFO dfs.FSNamesystem: BLOCK* NameSystem.delete: blk_370143206656705276 is added to invalidSet of 10.251.38.53:50010
081110 210113 28 INFO dfs.FSNamesystem: BLOCK* NameSystem.delete: blk_-7249993299520138778 is added to invalidSet of 10.251.106.37:50010
081110 210113 28 INFO dfs.FSNamesystem: BLOCK* NameSystem.delete: blk_-7249993299520138778 is added to invalidSet of 10.251.111.37:50010
081110 210113 28 INFO dfs.FSNamesystem: BLOCK* NameSystem.delete: blk_-7249993299520138778 is added to invalidSet of 10.251.123.132:50010
081110 210115 28 INFO dfs.FSNamesystem: BLOCK* NameSystem.delete: blk_-6015566154637259263 is added to invalidSet of 10.251.107.98:50010
081110 210115 28 INFO dfs.FSNamesystem: BLOCK* NameSystem.delete: blk_-6015566154637259263 is added to invalidSet of 10.251.193.175:50010
081110 210115 28 INFO dfs.FSNamesystem: BLOCK* NameSystem.delete: blk_-6015566154637259263 is added to invalidSet of 10.251.194.245:50010
081110 210121 28 INFO dfs.FSNamesystem: BLOCK* NameSystem.delete: blk_-1840559768019637713 is added to invalidSet of 10.251.26.131:50010
081110 210121 28 INFO dfs.FSNamesystem: BLOCK* NameSystem.delete: blk_-1840559768019637713 is added to invalidSet of 10.251.70.37:50010
081110 210121 28 INFO dfs.FSNamesystem: BLOCK* NameSystem.delete: blk_-1840559768019637713 is added to invalidSet of 10.251.75.228:50010
081110 210128 28 INFO dfs.FSNamesystem: BLOCK* NameSystem.delete: blk_-3564782315087602916 is added to invalidSet of 10.250.19.16:50010
081110 210128 28 INFO dfs.FSNamesystem: BLOCK* NameSystem.delete: blk_-3564782315087602916 is added to invalidSet of 10.250.5.161:50010
081110 210128 28 INFO dfs.FSNamesystem: BLOCK* NameSystem.delete: blk_-3564782315087602916 is added to invalidSet of 10.251.25.237:50010
081110 210128 28 INFO dfs.FSNamesystem: BLOCK* NameSystem.delete: blk_-7381120568125775060 is added to invalidSet of 10.251.127.243:50010
081110 210128 28 INFO dfs.FSNamesystem: BLOCK* NameSystem.delete: blk_-7381120568125775060 is added to invalidSet of 10.251.66.192:50010
081110 210128 28 INFO dfs.FSNamesystem: BLOCK* NameSystem.delete: blk_-7381120568125775060 is added to invalidSet of 10.251.73.220:50010
081110 210131 28 INFO dfs.FSNamesystem: BLOCK* NameSystem.delete: blk_6033761786785152926 is added to invalidSet of 10.251.198.33:50010
081110 210131 28 INFO dfs.FSNamesystem: BLOCK* NameSystem.delete: blk_6033761786785152926 is added to invalidSet of 10.251.202.134:50010
081110 210131 28 INFO dfs.FSNamesystem: BLOCK* NameSystem.delete: blk_6033761786785152926 is added to invalidSet of 10.251.91.159:50010
081110 210132 28 INFO dfs.FSNamesystem: BLOCK* NameSystem.delete: blk_1385048864887983805 is added to invalidSet of 10.250.10.100:50010
081110 210132 28 INFO dfs.FSNamesystem: BLOCK* NameSystem.delete: blk_1385048864887983805 is added to invalidSet of 10.251.30.134:50010
081110 210132 28 INFO dfs.FSNamesystem: BLOCK* NameSystem.delete: blk_1385048864887983805 is added to invalidSet of 10.251.74.79:50010
081110 210134 28 INFO dfs.FSNamesystem: BLOCK* NameSystem.delete: blk_-3062122221573712550 is added to invalidSet of 10.250.7.32:50010
081110 210134 28 INFO dfs.FSNamesystem: BLOCK* NameSystem.delete: blk_-3062122221573712550 is added to invalidSet of 10.251.121.224:50010
081110 210134 28 INFO dfs.FSNamesystem: BLOCK* NameSystem.delete: blk_-3062122221573712550 is added to invalidSet of 10.251.74.134:50010
081110 210134 28 INFO dfs.FSNamesystem: BLOCK* NameSystem.delete: blk_-5664075004822535833 is added to invalidSet of 10.251.121.224:50010
081110 210134 28 INFO dfs.FSNamesystem: BLOCK* NameSystem.delete: blk_-5664075004822535833 is added to invalidSet of 10.251.126.83:50010
081110 210134 28 INFO dfs.FSNamesystem: BLOCK* NameSystem.delete: blk_-5664075004822535833 is added to invalidSet of 10.251.194.129:50010
081110 210140 19 INFO dfs.FSDataset: Deleting block blk_-7381120568125775060 file /mnt/hadoop/dfs/data/current/subdir10/blk_-7381120568125775060
081110 210141 28 INFO dfs.FSNamesystem: BLOCK* NameSystem.delete: blk_-1416130336077518778 is added to invalidSet of 10.251.111.130:50010
081110 210141 28 INFO dfs.FSNamesystem: BLOCK* NameSystem.delete: blk_-1416130336077518778 is added to invalidSet of 10.251.123.1:50010
081110 210141 28 INFO dfs.FSNamesystem: BLOCK* NameSystem.delete: blk_-1416130336077518778 is added to invalidSet of 10.251.194.102:50010
081110 210142 28 INFO dfs.FSNamesystem: BLOCK* NameSystem.delete: blk_-8028419203262447911 is added to invalidSet of 10.251.106.50:50010
081110 210142 28 INFO dfs.FSNamesystem: BLOCK* NameSystem.delete: blk_-8028419203262447911 is added to invalidSet of 10.251.121.224:50010
081110 210142 28 INFO dfs.FSNamesystem: BLOCK* NameSystem.delete: blk_-8028419203262447911 is added to invalidSet of 10.251.198.33:50010
081110 210143 19 INFO dfs.FSDataset: Deleting block blk_-7249993299520138778 file /mnt/hadoop/dfs/data/current/subdir27/blk_-7249993299520138778
081110 210143 28 INFO dfs.FSNamesystem: BLOCK* NameSystem.delete: blk_6731497305744378792 is added to invalidSet of 10.251.107.19:50010
081110 210143 28 INFO dfs.FSNamesystem: BLOCK* NameSystem.delete: blk_6731497305744378792 is added to invalidSet of 10.251.109.236:50010
081110 210143 28 INFO dfs.FSNamesystem: BLOCK* NameSystem.delete: blk_6731497305744378792 is added to invalidSet of 10.251.43.210:50010
081110 210144 28 INFO dfs.FSNamesystem: BLOCK* NameSystem.delete: blk_4921365742913001999 is added to invalidSet of 10.251.110.196:50010
081110 210144 28 INFO dfs.FSNamesystem: BLOCK* NameSystem.delete: blk_4921365742913001999 is added to invalidSet of 10.251.35.1:50010
081110 210144 28 INFO dfs.FSNamesystem: BLOCK* NameSystem.delete: blk_4921365742913001999 is added to invalidSet of 10.251.39.64:50010
081110 210147 28 INFO dfs.FSNamesystem: BLOCK* NameSystem.delete: blk_-3011614520855474984 is added to invalidSet of 10.250.15.101:50010
081110 210147 28 INFO dfs.FSNamesystem: BLOCK* NameSystem.delete: blk_-3011614520855474984 is added to invalidSet of 10.251.31.85:50010
081110 210147 28 INFO dfs.FSNamesystem: BLOCK* NameSystem.delete: blk_-3011614520855474984 is added to invalidSet of 10.251.91.159:50010
081110 210148 28 INFO dfs.FSNamesystem: BLOCK* NameSystem.delete: blk_4181481896456927575 is added to invalidSet of 10.251.199.150:50010
081110 210148 28 INFO dfs.FSNamesystem: BLOCK* NameSystem.delete: blk_4181481896456927575 is added to invalidSet of 10.251.66.192:50010
081110 210148 28 INFO dfs.FSNamesystem: BLOCK* NameSystem.delete: blk_4181481896456927575 is added to invalidSet of 10.251.91.229:50010
081110 210152 28 INFO dfs.FSNamesystem: BLOCK* NameSystem.delete: blk_5288787164987522720 is added to invalidSet of 10.250.17.225:50010
081110 210152 28 INFO dfs.FSNamesystem: BLOCK* NameSystem.delete: blk_5288787164987522720 is added to invalidSet of 10.251.123.1:50010
081110 210152 28 INFO dfs.FSNamesystem: BLOCK* NameSystem.delete: blk_5288787164987522720 is added to invalidSet of 10.251.203.149:50010
081110 210156 28 INFO dfs.FSNamesystem: BLOCK* NameSystem.delete: blk_4567887863537169495 is added to invalidSet of 10.251.107.50:50010
081110 210156 28 INFO dfs.FSNamesystem: BLOCK* NameSystem.delete: blk_4567887863537169495 is added to invalidSet of 10.251.65.237:50010
081110 210156 28 INFO dfs.FSNamesystem: BLOCK* NameSystem.delete: blk_4567887863537169495 is added to invalidSet of 10.251.71.146:50010
081110 210159 19 INFO dfs.FSDataset: Deleting block blk_-3062122221573712550 file /mnt/hadoop/dfs/data/current/subdir38/blk_-3062122221573712550
081110 210201 28 INFO dfs.FSNamesystem: BLOCK* NameSystem.delete: blk_285488593273205527 is added to invalidSet of 10.251.110.8:50010
081110 210201 28 INFO dfs.FSNamesystem: BLOCK* NameSystem.delete: blk_285488593273205527 is added to invalidSet of 10.251.127.47:50010
081110 210201 28 INFO dfs.FSNamesystem: BLOCK* NameSystem.delete: blk_285488593273205527 is added to invalidSet of 10.251.90.134:50010
081110 210255 19 INFO dfs.FSDataset: Deleting block blk_-8028419203262447911 file /mnt/hadoop/dfs/data/current/blk_-8028419203262447911
081110 210302 19 INFO dfs.FSDataset: Deleting block blk_-8028419203262447911 file /mnt/hadoop/dfs/data/current/blk_-8028419203262447911
081110 210334 18 INFO dfs.FSDataset: Deleting block blk_-7381120568125775060 file /mnt/hadoop/dfs/data/current/subdir54/blk_-7381120568125775060
081110 210334 19 INFO dfs.FSDataset: Deleting block blk_-7381120568125775060 file /mnt/hadoop/dfs/data/current/subdir40/blk_-7381120568125775060
081110 210355 19 INFO dfs.FSDataset: Deleting block blk_-7249993299520138778 file /mnt/hadoop/dfs/data/current/subdir53/blk_-7249993299520138778
081110 210400 19 INFO dfs.FSDataset: Deleting block blk_-5664075004822535833 file /mnt/hadoop/dfs/data/current/subdir19/blk_-5664075004822535833
081110 210407 19 INFO dfs.FSDataset: Deleting block blk_-8028419203262447911 file /mnt/hadoop/dfs/data/current/blk_-8028419203262447911
081110 210412 19 INFO dfs.FSDataset: Deleting block blk_-5664075004822535833 file /mnt/hadoop/dfs/data/current/subdir51/blk_-5664075004822535833
081110 210415 19 INFO dfs.FSDataset: Deleting block blk_-6015566154637259263 file /mnt/hadoop/dfs/data/current/subdir15/blk_-6015566154637259263
081110 210426 19 INFO dfs.FSDataset: Deleting block blk_-7249993299520138778 file /mnt/hadoop/dfs/data/current/subdir12/blk_-7249993299520138778
081110 210435 19 INFO dfs.FSDataset: Deleting block blk_-3564782315087602916 file /mnt/hadoop/dfs/data/current/subdir60/blk_-3564782315087602916
081110 210447 19 INFO dfs.FSDataset: Deleting block blk_-3062122221573712550 file /mnt/hadoop/dfs/data/current/subdir16/blk_-3062122221573712550
081110 210450 19 INFO dfs.FSDataset: Deleting block blk_-3011614520855474984 file /mnt/hadoop/dfs/data/current/subdir7/blk_-3011614520855474984
081110 210454 19 INFO dfs.FSDataset: Deleting block blk_-3564782315087602916 file /mnt/hadoop/dfs/data/current/subdir16/blk_-3564782315087602916
081110 210459 19 INFO dfs.FSDataset: Deleting block blk_-1840559768019637713 file /mnt/hadoop/dfs/data/current/subdir37/blk_-1840559768019637713
081110 210506 19 INFO dfs.FSDataset: Deleting block blk_285488593273205527 file /mnt/hadoop/dfs/data/current/subdir32/blk_285488593273205527
081110 210509 19 INFO dfs.FSDataset: Deleting block blk_-3011614520855474984 file /mnt/hadoop/dfs/data/current/subdir41/blk_-3011614520855474984
081110 210510 19 INFO dfs.FSDataset: Deleting block blk_-5664075004822535833 file /mnt/hadoop/dfs/data/current/subdir30/blk_-5664075004822535833
081110 210512 19 INFO dfs.FSDataset: Deleting block blk_-3564782315087602916 file /mnt/hadoop/dfs/data/current/subdir53/blk_-3564782315087602916
081110 210512 19 INFO dfs.FSDataset: Deleting block blk_-6015566154637259263 file /mnt/hadoop/dfs/data/current/subdir51/blk_-6015566154637259263
081110 210515 19 INFO dfs.FSDataset: Deleting block blk_-1416130336077518778 file /mnt/hadoop/dfs/data/current/blk_-1416130336077518778
081110 210517 19 INFO dfs.FSDataset: Deleting block blk_-1416130336077518778 file /mnt/hadoop/dfs/data/current/blk_-1416130336077518778
081110 210518 19 INFO dfs.FSDataset: Deleting block blk_4921365742913001999 file /mnt/hadoop/dfs/data/current/subdir19/blk_4921365742913001999
081110 210521 19 INFO dfs.FSDataset: Deleting block blk_-6015566154637259263 file /mnt/hadoop/dfs/data/current/subdir10/blk_-6015566154637259263
081110 210523 19 INFO dfs.FSDataset: Deleting block blk_-1840559768019637713 file /mnt/hadoop/dfs/data/current/subdir24/blk_-1840559768019637713
081110 210524 18 INFO dfs.FSDataset: Deleting block blk_4921365742913001999 file /mnt/hadoop/dfs/data/current/subdir46/blk_4921365742913001999
081110 210525 18 INFO dfs.FSDataset: Deleting block blk_-1840559768019637713 file /mnt/hadoop/dfs/data/current/subdir61/blk_-1840559768019637713
081110 210531 19 INFO dfs.FSDataset: Deleting block blk_285488593273205527 file /mnt/hadoop/dfs/data/current/subdir62/blk_285488593273205527
081110 210534 19 INFO dfs.FSDataset: Deleting block blk_-1416130336077518778 file /mnt/hadoop/dfs/data/current/blk_-1416130336077518778
081110 210537 19 INFO dfs.FSDataset: Deleting block blk_4181481896456927575 file /mnt/hadoop/dfs/data/current/subdir24/blk_4181481896456927575
081110 210543 19 INFO dfs.FSDataset: Deleting block blk_370143206656705276 file /mnt/hadoop/dfs/data/current/subdir49/blk_370143206656705276
081110 210548 19 INFO dfs.FSDataset: Deleting block blk_6033761786785152926 file /mnt/hadoop/dfs/data/current/subdir37/blk_6033761786785152926
081110 210548 19 INFO dfs.FSDataset: Deleting block blk_6731497305744378792 file /mnt/hadoop/dfs/data/current/subdir45/blk_6731497305744378792
081110 210549 19 INFO dfs.FSDataset: Deleting block blk_5288787164987522720 file /mnt/hadoop/dfs/data/current/subdir21/blk_5288787164987522720
081110 210554 19 INFO dfs.FSDataset: Deleting block blk_370143206656705276 file /mnt/hadoop/dfs/data/current/subdir1/blk_370143206656705276
081110 210557 19 INFO dfs.FSDataset: Deleting block blk_4567887863537169495 file /mnt/hadoop/dfs/data/current/subdir43/blk_4567887863537169495
081110 210558 19 INFO dfs.FSDataset: Deleting block blk_1385048864887983805 file /mnt/hadoop/dfs/data/current/subdir16/blk_1385048864887983805
081110 210558 19 INFO dfs.FSDataset: Deleting block blk_285488593273205527 file /mnt/hadoop/dfs/data/current/subdir7/blk_285488593273205527
081110 210608 19 INFO dfs.FSDataset: Deleting block blk_6731497305744378792 file /mnt/hadoop/dfs/data/current/subdir34/blk_6731497305744378792
081110 210609 19 INFO dfs.FSDataset: Deleting block blk_-3062122221573712550 file /mnt/hadoop/dfs/data/current/subdir39/blk_-3062122221573712550
081110 210610 19 INFO dfs.FSDataset: Deleting block blk_4567887863537169495 file /mnt/hadoop/dfs/data/current/subdir7/blk_4567887863537169495
081110 210611 19 INFO dfs.FSDataset: Deleting block blk_1385048864887983805 file /mnt/hadoop/dfs/data/current/subdir48/blk_1385048864887983805
081110 210612 19 INFO dfs.FSDataset: Deleting block blk_1385048864887983805 file /mnt/hadoop/dfs/data/current/subdir44/blk_1385048864887983805
081110 210616 19 INFO dfs.FSDataset: Deleting block blk_4921365742913001999 file /mnt/hadoop/dfs/data/current/subdir61/blk_4921365742913001999
081110 210617 19 INFO dfs.FSDataset: Deleting block blk_-3011614520855474984 file /mnt/hadoop/dfs/data/current/subdir10/blk_-3011614520855474984
081110 210617 19 INFO dfs.FSDataset: Deleting block blk_5288787164987522720 file /mnt/hadoop/dfs/data/current/subdir13/blk_5288787164987522720
081110 210621 19 INFO dfs.FSDataset: Deleting block blk_5288787164987522720 file /mnt/hadoop/dfs/data/current/subdir17/blk_5288787164987522720
081110 210622 19 INFO dfs.FSDataset: Deleting block blk_4181481896456927575 file /mnt/hadoop/dfs/data/current/subdir31/blk_4181481896456927575
081110 210625 19 INFO dfs.FSDataset: Deleting block blk_6033761786785152926 file /mnt/hadoop/dfs/data/current/subdir40/blk_6033761786785152926
081110 210626 19 INFO dfs.FSDataset: Deleting block blk_4181481896456927575 file /mnt/hadoop/dfs/data/current/subdir41/blk_4181481896456927575
081110 210635 19 INFO dfs.FSDataset: Deleting block blk_6731497305744378792 file /mnt/hadoop/dfs/data/current/subdir20/blk_6731497305744378792
081110 210651 19 INFO dfs.FSDataset: Deleting block blk_370143206656705276 file /mnt/hadoop/dfs/data/current/subdir45/blk_370143206656705276
081110 210658 19 INFO dfs.FSDataset: Deleting block blk_4567887863537169495 file /mnt/hadoop/dfs/data/current/subdir36/blk_4567887863537169495
081110 210925 19 INFO dfs.FSDataset: Deleting block blk_6033761786785152926 file /mnt/hadoop/dfs/data/current/subdir26/blk_6033761786785152926
081110 211018 14523 INFO dfs.DataNode$DataXceiver: Receiving block blk_6170370712207351880 src: /10.251.110.196:56250 dest: /10.251.110.196:50010
081110 211018 14719 INFO dfs.DataNode$DataXceiver: Receiving block blk_6170370712207351880 src: /10.251.195.52:60493 dest: /10.251.195.52:50010
081110 211018 14735 INFO dfs.DataNode$DataXceiver: Receiving block blk_6170370712207351880 src: /10.251.110.196:44002 dest: /10.251.110.196:50010
081110 211018 34 INFO dfs.FSNamesystem: BLOCK* NameSystem.allocateBlock: /user/root/rand3/_temporary/_task_200811101024_0005_m_000226_0/part-00226. blk_6170370712207351880
081110 211045 14524 INFO dfs.DataNode$PacketResponder: PacketResponder 1 for block blk_6170370712207351880 terminating
081110 211045 14524 INFO dfs.DataNode$PacketResponder: Received block blk_6170370712207351880 of size 67108864 from /10.251.110.196
081110 211045 14720 INFO dfs.DataNode$PacketResponder: PacketResponder 0 for block blk_6170370712207351880 terminating
081110 211045 14720 INFO dfs.DataNode$PacketResponder: Received block blk_6170370712207351880 of size 67108864 from /10.251.195.52
081110 211045 35 INFO dfs.FSNamesystem: BLOCK* NameSystem.addStoredBlock: blockMap updated: 10.251.195.52:50010 is added to blk_6170370712207351880 size 67108864
081110 211045 35 INFO dfs.FSNamesystem: BLOCK* NameSystem.addStoredBlock: blockMap updated: 10.251.75.143:50010 is added to blk_6170370712207351880 size 67108864
081110 211046 14736 INFO dfs.DataNode$PacketResponder: PacketResponder 2 for block blk_6170370712207351880 terminating
081110 211046 14736 INFO dfs.DataNode$PacketResponder: Received block blk_6170370712207351880 of size 67108864 from /10.251.110.196
081110 211046 26 INFO dfs.FSNamesystem: BLOCK* NameSystem.addStoredBlock: blockMap updated: 10.251.110.196:50010 is added to blk_6170370712207351880 size 67108864
081110 211049 14448 INFO dfs.DataNode$DataXceiver: Receiving block blk_2593732010654424008 src: /10.250.15.240:56612 dest: /10.250.15.240:50010
081110 211049 14602 INFO dfs.DataNode$DataXceiver: Receiving block blk_2593732010654424008 src: /10.250.15.240:39189 dest: /10.250.15.240:50010
081110 211049 14659 INFO dfs.DataNode$DataXceiver: Receiving block blk_2593732010654424008 src: /10.251.90.134:45970 dest: /10.251.90.134:50010
081110 211049 30 INFO dfs.FSNamesystem: BLOCK* NameSystem.allocateBlock: /user/root/rand3/_temporary/_task_200811101024_0005_m_000144_0/part-00144. blk_2593732010654424008
081110 211135 14449 INFO dfs.DataNode$PacketResponder: PacketResponder 1 for block blk_2593732010654424008 terminating
081110 211135 14449 INFO dfs.DataNode$PacketResponder: Received block blk_2593732010654424008 of size 67108864 from /10.250.15.240
081110 211135 14603 INFO dfs.DataNode$PacketResponder: PacketResponder 2 for block blk_2593732010654424008 terminating
081110 211135 14603 INFO dfs.DataNode$PacketResponder: Received block blk_2593732010654424008 of size 67108864 from /10.250.15.240
081110 211135 14660 INFO dfs.DataNode$PacketResponder: PacketResponder 0 for block blk_2593732010654424008 terminating
081110 211135 14660 INFO dfs.DataNode$PacketResponder: Received block blk_2593732010654424008 of size 67108864 from /10.251.90.134
081110 211135 27 INFO dfs.FSNamesystem: BLOCK* NameSystem.addStoredBlock: blockMap updated: 10.251.90.134:50010 is added to blk_2593732010654424008 size 67108864
081110 211135 31 INFO dfs.FSNamesystem: BLOCK* NameSystem.addStoredBlock: blockMap updated: 10.251.194.129:50010 is added to blk_2593732010654424008 size 67108864
081110 211135 32 INFO dfs.FSNamesystem: BLOCK* NameSystem.addStoredBlock: blockMap updated: 10.250.15.240:50010 is added to blk_2593732010654424008 size 67108864
081110 211435 19 INFO dfs.FSNamesystem: BLOCK* ask 10.251.197.161:50010 to replicate blk_-8712198768474595123 to datanode(s) 10.251.127.191:50010
081110 211438 14842 INFO dfs.DataNode$DataXceiver: Receiving block blk_-8712198768474595123 src: /10.251.197.161:41410 dest: /10.251.197.161:50010
081110 211438 19 INFO dfs.DataNode: 10.251.197.161:50010 Starting thread to transfer block blk_-8712198768474595123 to 10.251.127.191:50010
081110 211533 14590 INFO dfs.DataNode$DataTransfer: 10.251.197.161:50010:Transmitted block blk_-8712198768474595123 to /10.251.127.191:50010
081110 211533 14842 INFO dfs.DataNode$DataXceiver: Received block blk_-8712198768474595123 src: /10.251.197.161:41410 dest: /10.251.197.161:50010 of size 67108864
081110 211533 28 INFO dfs.FSNamesystem: BLOCK* NameSystem.addStoredBlock: blockMap updated: 10.251.127.191:50010 is added to blk_-8712198768474595123 size 67108864
081110 211745 14734 INFO dfs.DataNode$DataXceiver: Receiving block blk_6968008900992943110 src: /10.250.7.244:33401 dest: /10.250.7.244:50010
081110 211745 14753 INFO dfs.DataNode$DataXceiver: Receiving block blk_6968008900992943110 src: /10.250.7.244:54108 dest: /10.250.7.244:50010
081110 211745 14873 INFO dfs.DataNode$DataXceiver: Receiving block blk_6968008900992943110 src: /10.251.67.4:42108 dest: /10.251.67.4:50010
081110 211745 26 INFO dfs.FSNamesystem: BLOCK* NameSystem.allocateBlock: /user/root/rand3/_temporary/_task_200811101024_0005_m_000684_0/part-00684. blk_6968008900992943110
081110 211822 14736 INFO dfs.DataNode$PacketResponder: PacketResponder 1 for block blk_6968008900992943110 terminating
081110 211822 14736 INFO dfs.DataNode$PacketResponder: Received block blk_6968008900992943110 of size 67108864 from /10.250.7.244
081110 211822 14754 INFO dfs.DataNode$PacketResponder: PacketResponder 2 for block blk_6968008900992943110 terminating
081110 211822 14754 INFO dfs.DataNode$PacketResponder: Received block blk_6968008900992943110 of size 67108864 from /10.250.7.244
081110 211822 14874 INFO dfs.DataNode$PacketResponder: PacketResponder 0 for block blk_6968008900992943110 terminating
081110 211822 14874 INFO dfs.DataNode$PacketResponder: Received block blk_6968008900992943110 of size 67108864 from /10.251.67.4
081110 211822 29 INFO dfs.FSNamesystem: BLOCK* NameSystem.addStoredBlock: blockMap updated: 10.250.7.244:50010 is added to blk_6968008900992943110 size 67108864
081110 211822 29 INFO dfs.FSNamesystem: BLOCK* NameSystem.addStoredBlock: blockMap updated: 10.251.107.196:50010 is added to blk_6968008900992943110 size 67108864
081110 211822 31 INFO dfs.FSNamesystem: BLOCK* NameSystem.addStoredBlock: blockMap updated: 10.251.67.4:50010 is added to blk_6968008900992943110 size 67108864
081110 212106 29 INFO dfs.FSNamesystem: BLOCK* NameSystem.addStoredBlock: blockMap updated: 10.251.39.160:50010 is added to blk_-8712198768474595123 size 67108864
081110 212111 18 INFO dfs.FSDataset: Deleting block blk_-8712198768474595123 file /mnt/hadoop/dfs/data/current/subdir57/blk_-8712198768474595123
081110 212207 14827 INFO dfs.DataNode$DataXceiver: Receiving block blk_-5821858257706419426 src: /10.251.71.193:58579 dest: /10.251.71.193:50010
081110 212207 14968 INFO dfs.DataNode$DataXceiver: Receiving block blk_-5821858257706419426 src: /10.251.91.15:51995 dest: /10.251.91.15:50010
081110 212207 14986 INFO dfs.DataNode$DataXceiver: Receiving block blk_-5821858257706419426 src: /10.251.91.15:58962 dest: /10.251.91.15:50010
081110 212207 32 INFO dfs.FSNamesystem: BLOCK* NameSystem.allocateBlock: /user/root/rand3/_temporary/_task_200811101024_0005_m_000661_0/part-00661. blk_-5821858257706419426
081110 212233 14828 INFO dfs.DataNode$PacketResponder: PacketResponder 0 for block blk_-5821858257706419426 terminating
081110 212233 14828 INFO dfs.DataNode$PacketResponder: Received block blk_-5821858257706419426 of size 67108864 from /10.251.71.193
081110 212233 14969 INFO dfs.DataNode$PacketResponder: PacketResponder 2 for block blk_-5821858257706419426 terminating
081110 212233 14969 INFO dfs.DataNode$PacketResponder: Received block blk_-5821858257706419426 of size 67108864 from /10.251.91.15
081110 212233 14987 INFO dfs.DataNode$PacketResponder: PacketResponder 1 for block blk_-5821858257706419426 terminating
081110 212233 14987 INFO dfs.DataNode$PacketResponder: Received block blk_-5821858257706419426 of size 67108864 from /10.251.91.15
081110 212233 29 INFO dfs.FSNamesystem: BLOCK* NameSystem.addStoredBlock: blockMap updated: 10.251.26.131:50010 is added to blk_-5821858257706419426 size 67108864
081110 212233 30 INFO dfs.FSNamesystem: BLOCK* NameSystem.addStoredBlock: blockMap updated: 10.251.71.193:50010 is added to blk_-5821858257706419426 size 67108864
081110 212233 35 INFO dfs.FSNamesystem: BLOCK* NameSystem.addStoredBlock: blockMap updated: 10.251.91.15:50010 is added to blk_-5821858257706419426 size 67108864
081110 212447 14965 INFO dfs.DataNode$DataXceiver: Receiving block blk_-22672655128676291 src: /10.251.31.85:43467 dest: /10.251.31.85:50010
081110 212447 15151 INFO dfs.DataNode$DataXceiver: Receiving block blk_-22672655128676291 src: /10.251.31.85:46760 dest: /10.251.31.85:50010
081110 212447 29 INFO dfs.FSNamesystem: BLOCK* NameSystem.allocateBlock: /user/root/rand3/_temporary/_task_200811101024_0005_m_000816_0/part-00816. blk_-22672655128676291
081110 212448 14903 INFO dfs.DataNode$DataXceiver: Receiving block blk_-22672655128676291 src: /10.251.90.81:50189 dest: /10.251.90.81:50010
081110 212528 14904 INFO dfs.DataNode$PacketResponder: PacketResponder 0 for block blk_-22672655128676291 terminating
081110 212528 14904 INFO dfs.DataNode$PacketResponder: Received block blk_-22672655128676291 of size 67108864 from /10.251.90.81
081110 212528 14966 INFO dfs.DataNode$PacketResponder: PacketResponder 2 for block blk_-22672655128676291 terminating
081110 212528 14966 INFO dfs.DataNode$PacketResponder: Received block blk_-22672655128676291 of size 67108864 from /10.251.31.85
081110 212528 15154 INFO dfs.DataNode$PacketResponder: PacketResponder 1 for block blk_-22672655128676291 terminating
081110 212528 15154 INFO dfs.DataNode$PacketResponder: Received block blk_-22672655128676291 of size 67108864 from /10.251.31.85
081110 212528 31 INFO dfs.FSNamesystem: BLOCK* NameSystem.addStoredBlock: blockMap updated: 10.251.90.81:50010 is added to blk_-22672655128676291 size 67108864
081110 212528 33 INFO dfs.FSNamesystem: BLOCK* NameSystem.addStoredBlock: blockMap updated: 10.251.31.85:50010 is added to blk_-22672655128676291 size 67108864
081110 212528 35 INFO dfs.FSNamesystem: BLOCK* NameSystem.addStoredBlock: blockMap updated: 10.251.111.130:50010 is added to blk_-22672655128676291 size 67108864
081110 212713 14878 INFO dfs.DataNode$DataXceiver: Receiving block blk_1489874884132233567 src: /10.251.107.227:47648 dest: /10.251.107.227:50010
081110 212713 14909 INFO dfs.DataNode$DataXceiver: Receiving block blk_1489874884132233567 src: /10.251.107.227:58011 dest: /10.251.107.227:50010
081110 212713 14939 INFO dfs.DataNode$DataXceiver: Receiving block blk_1489874884132233567 src: /10.251.30.179:58559 dest: /10.251.30.179:50010
081110 212713 31 INFO dfs.FSNamesystem: BLOCK* NameSystem.allocateBlock: /user/root/rand3/_temporary/_task_200811101024_0005_m_001025_0/part-01025. blk_1489874884132233567
081110 212742 14940 INFO dfs.DataNode$PacketResponder: PacketResponder 0 for block blk_1489874884132233567 terminating
081110 212742 14940 INFO dfs.DataNode$PacketResponder: Received block blk_1489874884132233567 of size 67108864 from /10.251.30.179
081110 212742 30 INFO dfs.FSNamesystem: BLOCK* NameSystem.addStoredBlock: blockMap updated: 10.251.194.147:50010 is added to blk_1489874884132233567 size 67108864
081110 212742 31 INFO dfs.FSNamesystem: BLOCK* NameSystem.addStoredBlock: blockMap updated: 10.251.107.227:50010 is added to blk_1489874884132233567 size 67108864
081110 212742 32 INFO dfs.FSNamesystem: BLOCK* NameSystem.addStoredBlock: blockMap updated: 10.251.30.179:50010 is added to blk_1489874884132233567 size 67108864
081110 212743 14879 INFO dfs.DataNode$PacketResponder: PacketResponder 1 for block blk_1489874884132233567 terminating
081110 212743 14879 INFO dfs.DataNode$PacketResponder: Received block blk_1489874884132233567 of size 67108864 from /10.251.107.227
081110 212743 14910 INFO dfs.DataNode$PacketResponder: PacketResponder 2 for block blk_1489874884132233567 terminating
081110 212743 14910 INFO dfs.DataNode$PacketResponder: Received block blk_1489874884132233567 of size 67108864 from /10.251.107.227
081110 212812 15328 INFO dfs.DataNode$DataXceiver: Receiving block blk_5051940020525746102 src: /10.250.11.194:52217 dest: /10.250.11.194:50010
081110 212812 35 INFO dfs.FSNamesystem: BLOCK* NameSystem.allocateBlock: /user/root/rand3/_temporary/_task_200811101024_0005_m_001009_0/part-01009. blk_5051940020525746102
081110 212814 14568 INFO dfs.DataNode$DataXceiver: Receiving block blk_5051940020525746102 src: /10.251.91.229:59192 dest: /10.251.91.229:50010
081110 212814 15108 INFO dfs.DataNode$DataXceiver: Receiving block blk_5051940020525746102 src: /10.250.11.194:53224 dest: /10.250.11.194:50010
081110 212845 14569 INFO dfs.DataNode$PacketResponder: PacketResponder 0 for block blk_5051940020525746102 terminating
081110 212845 14569 INFO dfs.DataNode$PacketResponder: Received block blk_5051940020525746102 of size 67108864 from /10.251.91.229
081110 212845 15109 INFO dfs.DataNode$PacketResponder: PacketResponder 1 for block blk_5051940020525746102 terminating
081110 212845 15109 INFO dfs.DataNode$PacketResponder: Received block blk_5051940020525746102 of size 67108864 from /10.250.11.194
081110 212845 15329 INFO dfs.DataNode$PacketResponder: PacketResponder 2 for block blk_5051940020525746102 terminating
081110 212845 15329 INFO dfs.DataNode$PacketResponder: Received block blk_5051940020525746102 of size 67108864 from /10.250.11.194
081110 212845 28 INFO dfs.FSNamesystem: BLOCK* NameSystem.addStoredBlock: blockMap updated: 10.250.11.194:50010 is added to blk_5051940020525746102 size 67108864
081110 212845 34 INFO dfs.FSNamesystem: BLOCK* NameSystem.addStoredBlock: blockMap updated: 10.251.203.246:50010 is added to blk_5051940020525746102 size 67108864
081110 212845 34 INFO dfs.FSNamesystem: BLOCK* NameSystem.addStoredBlock: blockMap updated: 10.251.91.229:50010 is added to blk_5051940020525746102 size 67108864
081110 213704 14729 INFO dfs.DataNode$DataXceiver: Receiving block blk_-7963829748771789319 src: /10.251.203.179:39074 dest: /10.251.203.179:50010
081110 213704 14848 INFO dfs.DataNode$DataXceiver: Receiving block blk_-7963829748771789319 src: /10.251.194.213:42326 dest: /10.251.194.213:50010
081110 213704 15204 INFO dfs.DataNode$DataXceiver: Receiving block blk_-7963829748771789319 src: /10.251.194.213:36300 dest: /10.251.194.213:50010
081110 213704 31 INFO dfs.FSNamesystem: BLOCK* NameSystem.allocateBlock: /user/root/rand3/_temporary/_task_200811101024_0005_m_001094_0/part-01094. blk_-7963829748771789319
081110 213756 14730 INFO dfs.DataNode$PacketResponder: PacketResponder 0 for block blk_-7963829748771789319 terminating
081110 213756 14730 INFO dfs.DataNode$PacketResponder: Received block blk_-7963829748771789319 of size 67108864 from /10.251.203.179
081110 213756 14849 INFO dfs.DataNode$PacketResponder: PacketResponder 1 for block blk_-7963829748771789319 terminating
081110 213756 14849 INFO dfs.DataNode$PacketResponder: Received block blk_-7963829748771789319 of size 67108864 from /10.251.194.213
081110 213756 15205 INFO dfs.DataNode$PacketResponder: PacketResponder 2 for block blk_-7963829748771789319 terminating
081110 213756 15205 INFO dfs.DataNode$PacketResponder: Received block blk_-7963829748771789319 of size 67108864 from /10.251.194.213
081110 213756 27 INFO dfs.FSNamesystem: BLOCK* NameSystem.addStoredBlock: blockMap updated: 10.251.91.32:50010 is added to blk_-7963829748771789319 size 67108864
081110 213756 33 INFO dfs.FSNamesystem: BLOCK* NameSystem.addStoredBlock: blockMap updated: 10.251.194.213:50010 is added to blk_-7963829748771789319 size 67108864
081110 213756 35 INFO dfs.FSNamesystem: BLOCK* NameSystem.addStoredBlock: blockMap updated: 10.251.203.179:50010 is added to blk_-7963829748771789319 size 67108864
081110 215426 15402 INFO dfs.DataNode$DataXceiver: Receiving block blk_-4964760706595913645 src: /10.251.43.21:33776 dest: /10.251.43.21:50010
081110 215426 26 INFO dfs.FSNamesystem: BLOCK* NameSystem.allocateBlock: /user/root/rand3/_temporary/_task_200811101024_0005_m_001890_0/part-01890. blk_-4964760706595913645
081110 215427 15689 INFO dfs.DataNode$DataXceiver: Receiving block blk_-4964760706595913645 src: /10.251.70.112:52635 dest: /10.251.70.112:50010
081110 215427 15708 INFO dfs.DataNode$DataXceiver: Receiving block blk_-4964760706595913645 src: /10.251.43.21:57590 dest: /10.251.43.21:50010
081110 215504 15690 INFO dfs.DataNode$PacketResponder: PacketResponder 0 for block blk_-4964760706595913645 terminating
081110 215504 15690 INFO dfs.DataNode$PacketResponder: Received block blk_-4964760706595913645 of size 67108864 from /10.251.70.112
081110 215504 28 INFO dfs.FSNamesystem: BLOCK* NameSystem.addStoredBlock: blockMap updated: 10.251.70.112:50010 is added to blk_-4964760706595913645 size 67108864
081110 215504 30 INFO dfs.FSNamesystem: BLOCK* NameSystem.addStoredBlock: blockMap updated: 10.251.111.209:50010 is added to blk_-4964760706595913645 size 67108864
081110 215504 32 INFO dfs.FSNamesystem: BLOCK* NameSystem.addStoredBlock: blockMap updated: 10.251.43.21:50010 is added to blk_-4964760706595913645 size 67108864
081110 215505 15405 INFO dfs.DataNode$PacketResponder: PacketResponder 2 for block blk_-4964760706595913645 terminating
081110 215505 15405 INFO dfs.DataNode$PacketResponder: Received block blk_-4964760706595913645 of size 67108864 from /10.251.43.21
081110 215505 15710 INFO dfs.DataNode$PacketResponder: PacketResponder 1 for block blk_-4964760706595913645 terminating
081110 215505 15710 INFO dfs.DataNode$PacketResponder: Received block blk_-4964760706595913645 of size 67108864 from /10.251.43.21
081110 220637 32 INFO dfs.FSNamesystem: BLOCK* NameSystem.delete: blk_2593732010654424008 is added to invalidSet of 10.250.15.240:50010
081110 220637 32 INFO dfs.FSNamesystem: BLOCK* NameSystem.delete: blk_2593732010654424008 is added to invalidSet of 10.251.194.129:50010
081110 220637 32 INFO dfs.FSNamesystem: BLOCK* NameSystem.delete: blk_2593732010654424008 is added to invalidSet of 10.251.90.134:50010
081110 220638 32 INFO dfs.FSNamesystem: BLOCK* NameSystem.delete: blk_6170370712207351880 is added to invalidSet of 10.251.110.196:50010
081110 220638 32 INFO dfs.FSNamesystem: BLOCK* NameSystem.delete: blk_6170370712207351880 is added to invalidSet of 10.251.195.52:50010
081110 220638 32 INFO dfs.FSNamesystem: BLOCK* NameSystem.delete: blk_6170370712207351880 is added to invalidSet of 10.251.75.143:50010
081110 220643 32 INFO dfs.FSNamesystem: BLOCK* NameSystem.delete: blk_-5821858257706419426 is added to invalidSet of 10.251.26.131:50010
081110 220643 32 INFO dfs.FSNamesystem: BLOCK* NameSystem.delete: blk_-5821858257706419426 is added to invalidSet of 10.251.71.193:50010
081110 220643 32 INFO dfs.FSNamesystem: BLOCK* NameSystem.delete: blk_-5821858257706419426 is added to invalidSet of 10.251.91.15:50010
081110 220643 32 INFO dfs.FSNamesystem: BLOCK* NameSystem.delete: blk_6968008900992943110 is added to invalidSet of 10.250.7.244:50010
081110 220643 32 INFO dfs.FSNamesystem: BLOCK* NameSystem.delete: blk_6968008900992943110 is added to invalidSet of 10.251.107.196:50010
081110 220643 32 INFO dfs.FSNamesystem: BLOCK* NameSystem.delete: blk_6968008900992943110 is added to invalidSet of 10.251.67.4:50010
081110 220645 32 INFO dfs.FSNamesystem: BLOCK* NameSystem.delete: blk_-22672655128676291 is added to invalidSet of 10.251.111.130:50010
081110 220645 32 INFO dfs.FSNamesystem: BLOCK* NameSystem.delete: blk_-22672655128676291 is added to invalidSet of 10.251.31.85:50010
081110 220645 32 INFO dfs.FSNamesystem: BLOCK* NameSystem.delete: blk_-22672655128676291 is added to invalidSet of 10.251.90.81:50010
081110 220647 32 INFO dfs.FSNamesystem: BLOCK* NameSystem.delete: blk_1489874884132233567 is added to invalidSet of 10.251.107.227:50010
081110 220647 32 INFO dfs.FSNamesystem: BLOCK* NameSystem.delete: blk_1489874884132233567 is added to invalidSet of 10.251.194.147:50010
081110 220647 32 INFO dfs.FSNamesystem: BLOCK* NameSystem.delete: blk_1489874884132233567 is added to invalidSet of 10.251.30.179:50010
081110 220647 32 INFO dfs.FSNamesystem: BLOCK* NameSystem.delete: blk_5051940020525746102 is added to invalidSet of 10.250.11.194:50010
081110 220647 32 INFO dfs.FSNamesystem: BLOCK* NameSystem.delete: blk_5051940020525746102 is added to invalidSet of 10.251.203.246:50010
081110 220647 32 INFO dfs.FSNamesystem: BLOCK* NameSystem.delete: blk_5051940020525746102 is added to invalidSet of 10.251.91.229:50010
081110 220648 32 INFO dfs.FSNamesystem: BLOCK* NameSystem.delete: blk_-7963829748771789319 is added to invalidSet of 10.251.194.213:50010
081110 220648 32 INFO dfs.FSNamesystem: BLOCK* NameSystem.delete: blk_-7963829748771789319 is added to invalidSet of 10.251.203.179:50010
081110 220648 32 INFO dfs.FSNamesystem: BLOCK* NameSystem.delete: blk_-7963829748771789319 is added to invalidSet of 10.251.91.32:50010
081110 220657 32 INFO dfs.FSNamesystem: BLOCK* NameSystem.delete: blk_-4964760706595913645 is added to invalidSet of 10.251.111.209:50010
081110 220657 32 INFO dfs.FSNamesystem: BLOCK* NameSystem.delete: blk_-4964760706595913645 is added to invalidSet of 10.251.43.21:50010
081110 220657 32 INFO dfs.FSNamesystem: BLOCK* NameSystem.delete: blk_-4964760706595913645 is added to invalidSet of 10.251.70.112:50010
081110 220712 15713 INFO dfs.DataNode$DataXceiver: Receiving block blk_-2356618783398960832 src: /10.251.214.175:59406 dest: /10.251.214.175:50010
081110 220712 31 INFO dfs.FSNamesystem: BLOCK* NameSystem.allocateBlock: /user/root/randtxt3/_temporary/_task_200811101024_0007_m_000255_0/part-00255. blk_-2356618783398960832
081110 220713 15378 INFO dfs.DataNode$DataXceiver: Receiving block blk_-2356618783398960832 src: /10.251.107.242:56363 dest: /10.251.107.242:50010
081110 220713 15426 INFO dfs.DataNode$DataXceiver: Receiving block blk_-2356618783398960832 src: /10.251.214.175:59903 dest: /10.251.214.175:50010
081110 220754 15379 INFO dfs.DataNode$PacketResponder: PacketResponder 0 for block blk_-2356618783398960832 terminating
081110 220754 15379 INFO dfs.DataNode$PacketResponder: Received block blk_-2356618783398960832 of size 67108864 from /10.251.107.242
081110 220754 15429 INFO dfs.DataNode$PacketResponder: PacketResponder 1 for block blk_-2356618783398960832 terminating
081110 220754 15429 INFO dfs.DataNode$PacketResponder: Received block blk_-2356618783398960832 of size 67108864 from /10.251.214.175
081110 220754 15715 INFO dfs.DataNode$PacketResponder: PacketResponder 2 for block blk_-2356618783398960832 terminating
081110 220754 15715 INFO dfs.DataNode$PacketResponder: Received block blk_-2356618783398960832 of size 67108864 from /10.251.214.175
081110 220754 19 INFO dfs.FSDataset: Deleting block blk_-5821858257706419426 file /mnt/hadoop/dfs/data/current/subdir42/blk_-5821858257706419426
081110 220754 31 INFO dfs.FSNamesystem: BLOCK* NameSystem.addStoredBlock: blockMap updated: 10.251.107.242:50010 is added to blk_-2356618783398960832 size 67108864
081110 220754 34 INFO dfs.FSNamesystem: BLOCK* NameSystem.addStoredBlock: blockMap updated: 10.251.214.175:50010 is added to blk_-2356618783398960832 size 67108864
081110 220756 19 INFO dfs.FSDataset: Deleting block blk_-7963829748771789319 file /mnt/hadoop/dfs/data/current/subdir13/blk_-7963829748771789319
081110 220807 19 INFO dfs.FSDataset: Deleting block blk_-7963829748771789319 file /mnt/hadoop/dfs/data/current/subdir16/blk_-7963829748771789319
081110 220816 19 INFO dfs.FSDataset: Deleting block blk_6968008900992943110 file /mnt/hadoop/dfs/data/current/subdir56/blk_6968008900992943110
081110 220843 19 INFO dfs.FSDataset: Deleting block blk_-5821858257706419426 file /mnt/hadoop/dfs/data/current/subdir12/blk_-5821858257706419426
081110 220851 19 INFO dfs.FSDataset: Deleting block blk_-7963829748771789319 file /mnt/hadoop/dfs/data/current/subdir29/blk_-7963829748771789319
081110 220856 19 INFO dfs.FSDataset: Deleting block blk_-4964760706595913645 file /mnt/hadoop/dfs/data/current/subdir27/blk_-4964760706595913645
081110 220857 19 INFO dfs.FSDataset: Deleting block blk_-4964760706595913645 file /mnt/hadoop/dfs/data/current/subdir42/blk_-4964760706595913645
081110 220859 19 INFO dfs.FSDataset: Deleting block blk_1489874884132233567 file /mnt/hadoop/dfs/data/current/subdir37/blk_1489874884132233567
081110 220904 19 INFO dfs.FSDataset: Deleting block blk_-4964760706595913645 file /mnt/hadoop/dfs/data/current/subdir9/blk_-4964760706595913645
081110 220904 19 INFO dfs.FSDataset: Deleting block blk_-5821858257706419426 file /mnt/hadoop/dfs/data/current/subdir30/blk_-5821858257706419426
081110 220907 19 INFO dfs.FSDataset: Deleting block blk_6170370712207351880 file /mnt/hadoop/dfs/data/current/blk_6170370712207351880
081110 220914 19 INFO dfs.FSDataset: Deleting block blk_2593732010654424008 file /mnt/hadoop/dfs/data/current/blk_2593732010654424008
081110 220915 19 INFO dfs.FSDataset: Deleting block blk_-22672655128676291 file /mnt/hadoop/dfs/data/current/subdir27/blk_-22672655128676291
081110 220916 19 INFO dfs.FSDataset: Deleting block blk_2593732010654424008 file /mnt/hadoop/dfs/data/current/blk_2593732010654424008
081110 220921 19 INFO dfs.FSDataset: Deleting block blk_1489874884132233567 file /mnt/hadoop/dfs/data/current/subdir0/blk_1489874884132233567
081110 220924 19 INFO dfs.FSDataset: Deleting block blk_5051940020525746102 file /mnt/hadoop/dfs/data/current/subdir4/blk_5051940020525746102
081110 220926 32 INFO dfs.FSNamesystem: BLOCK* NameSystem.addStoredBlock: blockMap updated: 10.251.202.181:50010 is added to blk_-2356618783398960832 size 67108864
081110 220927 19 INFO dfs.FSDataset: Deleting block blk_2593732010654424008 file /mnt/hadoop/dfs/data/current/blk_2593732010654424008
081110 220934 19 INFO dfs.FSDataset: Deleting block blk_-22672655128676291 file /mnt/hadoop/dfs/data/current/subdir1/blk_-22672655128676291
081110 220934 19 INFO dfs.FSDataset: Deleting block blk_5051940020525746102 file /mnt/hadoop/dfs/data/current/subdir3/blk_5051940020525746102
081110 220938 19 INFO dfs.FSDataset: Deleting block blk_1489874884132233567 file /mnt/hadoop/dfs/data/current/subdir57/blk_1489874884132233567
081110 220939 19 WARN dfs.FSDataset: Unexpected error trying to delete block blk_6968008900992943110. BlockInfo not found in volumeMap.
081110 220941 19 INFO dfs.FSDataset: Deleting block blk_6968008900992943110 file /mnt/hadoop/dfs/data/current/subdir0/blk_6968008900992943110
081110 220941 19 INFO dfs.FSDataset: Deleting block blk_6968008900992943110 file /mnt/hadoop/dfs/data/current/subdir3/blk_6968008900992943110
081110 220951 19 INFO dfs.FSDataset: Deleting block blk_6170370712207351880 file /mnt/hadoop/dfs/data/current/blk_6170370712207351880
081110 221010 19 INFO dfs.FSDataset: Deleting block blk_-22672655128676291 file /mnt/hadoop/dfs/data/current/subdir27/blk_-22672655128676291
081110 221032 19 INFO dfs.FSDataset: Deleting block blk_5051940020525746102 file /mnt/hadoop/dfs/data/current/subdir55/blk_5051940020525746102
081110 221105 19 INFO dfs.FSDataset: Deleting block blk_6170370712207351880 file /mnt/hadoop/dfs/data/current/blk_6170370712207351880
081110 221254 15769 INFO dfs.DataNode$DataXceiver: Receiving block blk_-3255141258448150225 src: /10.251.75.163:43405 dest: /10.251.75.163:50010
081110 221254 15790 INFO dfs.DataNode$DataXceiver: Receiving block blk_-3255141258448150225 src: /10.251.67.4:37982 dest: /10.251.67.4:50010
081110 221254 16077 INFO dfs.DataNode$DataXceiver: Receiving block blk_-3255141258448150225 src: /10.251.67.4:49508 dest: /10.251.67.4:50010
081110 221254 33 INFO dfs.FSNamesystem: BLOCK* NameSystem.allocateBlock: /user/root/randtxt3/_temporary/_task_200811101024_0007_m_000014_0/part-00014. blk_-3255141258448150225
081110 221322 15770 INFO dfs.DataNode$PacketResponder: PacketResponder 0 for block blk_-3255141258448150225 terminating
081110 221322 15770 INFO dfs.DataNode$PacketResponder: Received block blk_-3255141258448150225 of size 67108864 from /10.251.75.163
081110 221322 15791 INFO dfs.DataNode$PacketResponder: PacketResponder 2 for block blk_-3255141258448150225 terminating
081110 221322 15791 INFO dfs.DataNode$PacketResponder: Received block blk_-3255141258448150225 of size 67108864 from /10.251.67.4
081110 221322 16078 INFO dfs.DataNode$PacketResponder: PacketResponder 1 for block blk_-3255141258448150225 terminating
081110 221322 16078 INFO dfs.DataNode$PacketResponder: Received block blk_-3255141258448150225 of size 67108864 from /10.251.67.4
081110 221322 28 INFO dfs.FSNamesystem: BLOCK* NameSystem.addStoredBlock: blockMap updated: 10.251.74.192:50010 is added to blk_-3255141258448150225 size 67108864
081110 221322 29 INFO dfs.FSNamesystem: BLOCK* NameSystem.addStoredBlock: blockMap updated: 10.251.75.163:50010 is added to blk_-3255141258448150225 size 67108864
081110 221322 31 INFO dfs.FSNamesystem: BLOCK* NameSystem.addStoredBlock: blockMap updated: 10.251.67.4:50010 is added to blk_-3255141258448150225 size 67108864
081110 221938 19 INFO dfs.FSNamesystem: BLOCK* ask 10.251.127.191:50010 to replicate blk_-8712198768474595123 to datanode(s) 10.251.199.19:50010
081110 221939 19 INFO dfs.DataNode: 10.251.127.191:50010 Starting thread to transfer block blk_-8712198768474595123 to 10.251.199.19:50010
081110 221949 15831 INFO dfs.DataNode$DataXceiver: Receiving block blk_-8712198768474595123 src: /10.251.127.191:58778 dest: /10.251.127.191:50010
081110 222010 15831 INFO dfs.DataNode$DataXceiver: Received block blk_-8712198768474595123 src: /10.251.127.191:58778 dest: /10.251.127.191:50010 of size 67108864
081110 222010 16039 INFO dfs.DataNode$DataTransfer: 10.251.127.191:50010:Transmitted block blk_-8712198768474595123 to /10.251.199.19:50010
081110 222010 35 INFO dfs.FSNamesystem: BLOCK* NameSystem.addStoredBlock: blockMap updated: 10.251.199.19:50010 is added to blk_-8712198768474595123 size 67108864
081110 222157 16112 INFO dfs.DataNode$DataXceiver: Receiving block blk_-9110392840622333992 src: /10.251.214.112:52576 dest: /10.251.214.112:50010
081110 222158 16059 INFO dfs.DataNode$DataXceiver: Receiving block blk_-9110392840622333992 src: /10.251.214.112:45488 dest: /10.251.214.112:50010
081110 222158 16079 INFO dfs.DataNode$DataXceiver: Receiving block blk_-9110392840622333992 src: /10.251.70.37:38423 dest: /10.251.70.37:50010
081110 222158 32 INFO dfs.FSNamesystem: BLOCK* NameSystem.allocateBlock: /user/root/randtxt3/_temporary/_task_200811101024_0007_m_000695_0/part-00695. blk_-9110392840622333992
081110 222302 16060 INFO dfs.DataNode$PacketResponder: PacketResponder 1 for block blk_-9110392840622333992 terminating
081110 222302 16060 INFO dfs.DataNode$PacketResponder: Received block blk_-9110392840622333992 of size 67108864 from /10.251.214.112
081110 222302 16080 INFO dfs.DataNode$PacketResponder: PacketResponder 0 for block blk_-9110392840622333992 terminating
081110 222302 16080 INFO dfs.DataNode$PacketResponder: Received block blk_-9110392840622333992 of size 67108864 from /10.251.70.37
081110 222302 16113 INFO dfs.DataNode$PacketResponder: PacketResponder 2 for block blk_-9110392840622333992 terminating
081110 222302 16113 INFO dfs.DataNode$PacketResponder: Received block blk_-9110392840622333992 of size 67108864 from /10.251.214.112
081110 222302 29 INFO dfs.FSNamesystem: BLOCK* NameSystem.addStoredBlock: blockMap updated: 10.251.214.112:50010 is added to blk_-9110392840622333992 size 67108864
081110 222302 32 INFO dfs.FSNamesystem: BLOCK* NameSystem.addStoredBlock: blockMap updated: 10.251.70.37:50010 is added to blk_-9110392840622333992 size 67108864
081110 222303 27 INFO dfs.FSNamesystem: BLOCK* NameSystem.addStoredBlock: blockMap updated: 10.251.30.85:50010 is added to blk_-9110392840622333992 size 67108864
081110 222459 35 INFO dfs.FSNamesystem: BLOCK* NameSystem.addStoredBlock: blockMap updated: 10.251.39.160:50010 is added to blk_-8712198768474595123 size 67108864
081110 222509 19 INFO dfs.FSDataset: Deleting block blk_-8712198768474595123 file /mnt/hadoop/dfs/data/current/subdir28/blk_-8712198768474595123
081110 223422 16252 INFO dfs.DataNode$DataXceiver: Receiving block blk_8288141732045416368 src: /10.251.122.38:47633 dest: /10.251.122.38:50010
081110 223422 16349 INFO dfs.DataNode$DataXceiver: Receiving block blk_8288141732045416368 src: /10.251.122.38:33668 dest: /10.251.122.38:50010
081110 223422 16425 INFO dfs.DataNode$DataXceiver: Receiving block blk_8288141732045416368 src: /10.251.111.130:45328 dest: /10.251.111.130:50010
081110 223422 34 INFO dfs.FSNamesystem: BLOCK* NameSystem.allocateBlock: /user/root/randtxt3/_temporary/_task_200811101024_0007_m_001123_0/part-01123. blk_8288141732045416368
081110 223459 16255 INFO dfs.DataNode$PacketResponder: PacketResponder 1 for block blk_8288141732045416368 terminating
081110 223459 16255 INFO dfs.DataNode$PacketResponder: Received block blk_8288141732045416368 of size 67108864 from /10.251.122.38
081110 223459 16350 INFO dfs.DataNode$PacketResponder: PacketResponder 2 for block blk_8288141732045416368 terminating
081110 223459 16350 INFO dfs.DataNode$PacketResponder: Received block blk_8288141732045416368 of size 67108864 from /10.251.122.38
081110 223459 16426 INFO dfs.DataNode$PacketResponder: PacketResponder 0 for block blk_8288141732045416368 terminating
081110 223459 16426 INFO dfs.DataNode$PacketResponder: Received block blk_8288141732045416368 of size 67108864 from /10.251.111.130
081110 223459 26 INFO dfs.FSNamesystem: BLOCK* NameSystem.addStoredBlock: blockMap updated: 10.251.111.130:50010 is added to blk_8288141732045416368 size 67108864
081110 223459 29 INFO dfs.FSNamesystem: BLOCK* NameSystem.addStoredBlock: blockMap updated: 10.250.10.144:50010 is added to blk_8288141732045416368 size 67108864
081110 223459 33 INFO dfs.FSNamesystem: BLOCK* NameSystem.addStoredBlock: blockMap updated: 10.251.122.38:50010 is added to blk_8288141732045416368 size 67108864
081110 224047 16289 INFO dfs.DataNode$DataXceiver: Receiving block blk_2677563927192510554 src: /10.250.17.177:58157 dest: /10.250.17.177:50010
081110 224047 16465 INFO dfs.DataNode$DataXceiver: Receiving block blk_2677563927192510554 src: /10.250.17.177:57994 dest: /10.250.17.177:50010
081110 224047 29 INFO dfs.FSNamesystem: BLOCK* NameSystem.allocateBlock: /user/root/randtxt3/_temporary/_task_200811101024_0007_m_000972_0/part-00972. blk_2677563927192510554
081110 224048 16244 INFO dfs.DataNode$DataXceiver: Receiving block blk_2677563927192510554 src: /10.251.75.79:49012 dest: /10.251.75.79:50010
081110 224117 16245 INFO dfs.DataNode$PacketResponder: PacketResponder 0 for block blk_2677563927192510554 terminating
081110 224117 16245 INFO dfs.DataNode$PacketResponder: Received block blk_2677563927192510554 of size 67108864 from /10.251.75.79
081110 224117 16290 INFO dfs.DataNode$PacketResponder: PacketResponder 2 for block blk_2677563927192510554 terminating
081110 224117 16290 INFO dfs.DataNode$PacketResponder: Received block blk_2677563927192510554 of size 67108864 from /10.250.17.177
081110 224117 16466 INFO dfs.DataNode$PacketResponder: PacketResponder 1 for block blk_2677563927192510554 terminating
081110 224117 16466 INFO dfs.DataNode$PacketResponder: Received block blk_2677563927192510554 of size 67108864 from /10.250.17.177
081110 224117 33 INFO dfs.FSNamesystem: BLOCK* NameSystem.addStoredBlock: blockMap updated: 10.250.17.177:50010 is added to blk_2677563927192510554 size 67108864
081110 224117 33 INFO dfs.FSNamesystem: BLOCK* NameSystem.addStoredBlock: blockMap updated: 10.251.43.21:50010 is added to blk_2677563927192510554 size 67108864
081110 224117 34 INFO dfs.FSNamesystem: BLOCK* NameSystem.addStoredBlock: blockMap updated: 10.251.75.79:50010 is added to blk_2677563927192510554 size 67108864
081110 224953 16381 INFO dfs.DataNode$DataXceiver: Receiving block blk_3579245467550408822 src: /10.251.123.132:48637 dest: /10.251.123.132:50010
081110 224953 16646 INFO dfs.DataNode$DataXceiver: Receiving block blk_3579245467550408822 src: /10.251.71.240:50717 dest: /10.251.71.240:50010
081110 224953 16684 INFO dfs.DataNode$DataXceiver: Receiving block blk_3579245467550408822 src: /10.251.123.132:58330 dest: /10.251.123.132:50010
081110 224953 29 INFO dfs.FSNamesystem: BLOCK* NameSystem.allocateBlock: /user/root/randtxt3/_temporary/_task_200811101024_0007_m_001568_0/part-01568. blk_3579245467550408822
081110 225029 16382 INFO dfs.DataNode$PacketResponder: PacketResponder 2 for block blk_3579245467550408822 terminating
081110 225029 16382 INFO dfs.DataNode$PacketResponder: Received block blk_3579245467550408822 of size 67108864 from /10.251.123.132
081110 225029 16647 INFO dfs.DataNode$PacketResponder: PacketResponder 0 for block blk_3579245467550408822 terminating
081110 225029 16647 INFO dfs.DataNode$PacketResponder: Received block blk_3579245467550408822 of size 67108864 from /10.251.71.240
081110 225029 16685 INFO dfs.DataNode$PacketResponder: PacketResponder 1 for block blk_3579245467550408822 terminating
081110 225029 16685 INFO dfs.DataNode$PacketResponder: Received block blk_3579245467550408822 of size 67108864 from /10.251.123.132
081110 225029 27 INFO dfs.FSNamesystem: BLOCK* NameSystem.addStoredBlock: blockMap updated: 10.251.123.132:50010 is added to blk_3579245467550408822 size 67108864
081110 225029 28 INFO dfs.FSNamesystem: BLOCK* NameSystem.addStoredBlock: blockMap updated: 10.251.31.242:50010 is added to blk_3579245467550408822 size 67108864
081110 225029 34 INFO dfs.FSNamesystem: BLOCK* NameSystem.addStoredBlock: blockMap updated: 10.251.71.240:50010 is added to blk_3579245467550408822 size 67108864
081110 225500 16649 INFO dfs.DataNode$DataXceiver: Receiving block blk_-1290598724593617423 src: /10.251.126.22:34396 dest: /10.251.126.22:50010
081110 225500 16739 INFO dfs.DataNode$DataXceiver: Receiving block blk_-1290598724593617423 src: /10.251.126.22:56780 dest: /10.251.126.22:50010
081110 225500 16808 INFO dfs.DataNode$DataXceiver: Receiving block blk_-1290598724593617423 src: /10.251.125.237:47061 dest: /10.251.125.237:50010
081110 225500 32 INFO dfs.FSNamesystem: BLOCK* NameSystem.allocateBlock: /user/root/randtxt3/_temporary/_task_200811101024_0007_m_001301_0/part-01301. blk_-1290598724593617423
081110 225524 16650 INFO dfs.DataNode$PacketResponder: PacketResponder 1 for block blk_-1290598724593617423 terminating
081110 225524 16650 INFO dfs.DataNode$PacketResponder: Received block blk_-1290598724593617423 of size 28499836 from /10.251.126.22
081110 225524 16740 INFO dfs.DataNode$PacketResponder: PacketResponder 2 for block blk_-1290598724593617423 terminating
081110 225524 16740 INFO dfs.DataNode$PacketResponder: Received block blk_-1290598724593617423 of size 28499836 from /10.251.126.22
081110 225524 16809 INFO dfs.DataNode$PacketResponder: PacketResponder 0 for block blk_-1290598724593617423 terminating
081110 225524 16809 INFO dfs.DataNode$PacketResponder: Received block blk_-1290598724593617423 of size 28499836 from /10.251.125.237
081110 225524 31 INFO dfs.FSNamesystem: BLOCK* NameSystem.addStoredBlock: blockMap updated: 10.251.125.237:50010 is added to blk_-1290598724593617423 size 28499836
081110 225524 34 INFO dfs.FSNamesystem: BLOCK* NameSystem.addStoredBlock: blockMap updated: 10.251.126.22:50010 is added to blk_-1290598724593617423 size 28499836
081110 225524 35 INFO dfs.FSNamesystem: BLOCK* NameSystem.addStoredBlock: blockMap updated: 10.251.197.226:50010 is added to blk_-1290598724593617423 size 28499836
081110 225903 16486 INFO dfs.DataNode$DataXceiver: Receiving block blk_798098943729239371 src: /10.251.30.101:43739 dest: /10.251.30.101:50010
081110 225903 16936 INFO dfs.DataNode$DataXceiver: Receiving block blk_798098943729239371 src: /10.251.30.101:39892 dest: /10.251.30.101:50010
081110 225903 33 INFO dfs.FSNamesystem: BLOCK* NameSystem.allocateBlock: /user/root/randtxt3/_temporary/_task_200811101024_0007_m_001706_0/part-01706. blk_798098943729239371
081110 225904 16783 INFO dfs.DataNode$DataXceiver: Receiving block blk_798098943729239371 src: /10.251.90.64:41012 dest: /10.251.90.64:50010
081110 225940 16487 INFO dfs.DataNode$PacketResponder: PacketResponder 1 for block blk_798098943729239371 terminating
081110 225940 16487 INFO dfs.DataNode$PacketResponder: Received block blk_798098943729239371 of size 67108864 from /10.251.30.101
081110 225940 16784 INFO dfs.DataNode$PacketResponder: PacketResponder 0 for block blk_798098943729239371 terminating
081110 225940 16784 INFO dfs.DataNode$PacketResponder: Received block blk_798098943729239371 of size 67108864 from /10.251.90.64
081110 225940 16937 INFO dfs.DataNode$PacketResponder: PacketResponder 2 for block blk_798098943729239371 terminating
081110 225940 16937 INFO dfs.DataNode$PacketResponder: Received block blk_798098943729239371 of size 67108864 from /10.251.30.101
081110 225940 27 INFO dfs.FSNamesystem: BLOCK* NameSystem.addStoredBlock: blockMap updated: 10.251.107.196:50010 is added to blk_798098943729239371 size 67108864
081110 225940 29 INFO dfs.FSNamesystem: BLOCK* NameSystem.addStoredBlock: blockMap updated: 10.251.30.101:50010 is added to blk_798098943729239371 size 67108864
081110 225940 32 INFO dfs.FSNamesystem: BLOCK* NameSystem.addStoredBlock: blockMap updated: 10.251.90.64:50010 is added to blk_798098943729239371 size 67108864
081110 230635 16981 INFO dfs.DataNode$DataXceiver: Receiving block blk_-1322234263704117214 src: /10.251.75.49:58747 dest: /10.251.75.49:50010
081110 230635 31 INFO dfs.FSNamesystem: BLOCK* NameSystem.allocateBlock: /user/root/randtxt3/_temporary/_task_200811101024_0007_m_001886_0/part-01886. blk_-1322234263704117214
081110 230636 16727 INFO dfs.DataNode$DataXceiver: Receiving block blk_-1322234263704117214 src: /10.251.75.49:42268 dest: /10.251.75.49:50010
081110 230636 16922 INFO dfs.DataNode$DataXceiver: Receiving block blk_-1322234263704117214 src: /10.251.215.70:40509 dest: /10.251.215.70:50010
081110 230706 16728 INFO dfs.DataNode$PacketResponder: PacketResponder 1 for block blk_-1322234263704117214 terminating
081110 230706 16728 INFO dfs.DataNode$PacketResponder: Received block blk_-1322234263704117214 of size 67108864 from /10.251.75.49
081110 230706 16923 INFO dfs.DataNode$PacketResponder: PacketResponder 0 for block blk_-1322234263704117214 terminating
081110 230706 16923 INFO dfs.DataNode$PacketResponder: Received block blk_-1322234263704117214 of size 67108864 from /10.251.215.70
081110 230706 16982 INFO dfs.DataNode$PacketResponder: PacketResponder 2 for block blk_-1322234263704117214 terminating
081110 230706 16982 INFO dfs.DataNode$PacketResponder: Received block blk_-1322234263704117214 of size 67108864 from /10.251.75.49
081110 230706 27 INFO dfs.FSNamesystem: BLOCK* NameSystem.addStoredBlock: blockMap updated: 10.251.194.102:50010 is added to blk_-1322234263704117214 size 67108864
081110 230706 34 INFO dfs.FSNamesystem: BLOCK* NameSystem.addStoredBlock: blockMap updated: 10.251.75.49:50010 is added to blk_-1322234263704117214 size 67108864
081110 230707 34 INFO dfs.FSNamesystem: BLOCK* NameSystem.addStoredBlock: blockMap updated: 10.251.215.70:50010 is added to blk_-1322234263704117214 size 67108864
081110 234520 17247 INFO dfs.DataNode$DataXceiver: 10.251.197.226:50010 Served block blk_9180460506127105903 to /10.251.25.237
081110 234552 17262 INFO dfs.DataNode$DataXceiver: 10.251.197.226:50010 Served block blk_9180460506127105903 to /10.251.197.226
081110 234904 17153 WARN dfs.DataNode$DataXceiver: 10.250.7.32:50010:Got exception while serving blk_9180460506127105903 to /10.250.15.67:
081110 235324 17097 INFO dfs.DataNode$DataXceiver: 10.251.70.211:50010 Served block blk_2087586991849997617 to /10.251.70.211
081110 235612 17110 INFO dfs.DataNode$DataXceiver: 10.250.6.4:50010 Served block blk_2087586991849997617 to /10.251.106.50
081110 235704 17064 WARN dfs.DataNode$DataXceiver: 10.250.7.244:50010:Got exception while serving blk_2087586991849997617 to /10.251.65.203:
081111 002817 17108 INFO dfs.DataNode$DataXceiver: 10.250.7.146:50010 Served block blk_-5800886437115575722 to /10.250.7.146
081111 003159 16828 WARN dfs.DataNode$DataXceiver: 10.251.203.179:50010:Got exception while serving blk_-5800886437115575722 to /10.251.105.189:
081111 003304 17112 INFO dfs.DataNode$DataXceiver: 10.250.7.146:50010 Served block blk_-5800886437115575722 to /10.250.11.53
081111 004944 17371 WARN dfs.DataNode$DataXceiver: 10.250.14.38:50010:Got exception while serving blk_-837335451734670522 to /10.251.193.175:
081111 005226 17287 INFO dfs.DataNode$DataXceiver: 10.251.67.4:50010 Served block blk_-837335451734670522 to /10.251.67.4
081111 005337 17279 INFO dfs.DataNode$DataXceiver: 10.251.67.4:50010 Served block blk_-837335451734670522 to /10.251.65.237
081111 005748 17591 INFO dfs.DataNode$DataXceiver: 10.251.30.101:50010 Served block blk_1759394385544330241 to /10.251.30.101
081111 005830 17443 WARN dfs.DataNode$DataXceiver: 10.251.195.33:50010:Got exception while serving blk_1759394385544330241 to /10.250.5.161:
081111 005912 17583 INFO dfs.DataNode$DataXceiver: 10.251.30.101:50010 Served block blk_1759394385544330241 to /10.251.106.50
081111 010244 17487 INFO dfs.DataNode$DataXceiver: 10.251.71.240:50010 Served block blk_5963495457158414297 to /10.251.201.204
081111 010300 17218 INFO dfs.DataNode$DataXceiver: 10.251.30.134:50010 Served block blk_5963495457158414297 to /10.251.30.134
081111 010556 17226 WARN dfs.DataNode$DataXceiver: 10.251.30.134:50010:Got exception while serving blk_5963495457158414297 to /10.250.6.223:
081111 011119 17330 WARN dfs.DataNode$DataXceiver: 10.251.30.179:50010:Got exception while serving blk_-1487613146716399796 to /10.251.74.227:
081111 011139 17135 INFO dfs.DataNode$DataXceiver: 10.251.123.99:50010 Served block blk_-1487613146716399796 to /10.251.123.99
081111 011213 17129 INFO dfs.DataNode$DataXceiver: 10.251.123.99:50010 Served block blk_-1487613146716399796 to /10.251.203.4
081111 012226 17563 INFO dfs.DataNode$DataXceiver: 10.251.127.191:50010 Served block blk_-8712198768474595123 to /10.251.127.191
081111 012254 17336 INFO dfs.DataNode$DataXceiver: 10.251.197.161:50010 Served block blk_-8712198768474595123 to /10.251.106.50
081111 012652 13550 WARN dfs.DataNode$DataXceiver: 10.251.39.160:50010:Got exception while serving blk_-8712198768474595123 to /10.251.43.115:
081111 020120 17461 INFO dfs.DataNode$DataXceiver: 10.250.10.100:50010 Served block blk_-4097469754208342189 to /10.250.10.100
081111 020321 17289 INFO dfs.DataNode$DataXceiver: 10.250.14.224:50010 Served block blk_-4097469754208342189 to /10.250.14.224
081111 020336 17301 WARN dfs.DataNode$DataXceiver: 10.250.14.224:50010:Got exception while serving blk_-4097469754208342189 to /10.250.14.224:
081111 022519 17655 INFO dfs.DataNode$DataXceiver: 10.251.71.146:50010 Served block blk_1661657384116690310 to /10.251.71.146
081111 022651 17753 INFO dfs.DataNode$DataXceiver: 10.251.106.37:50010 Served block blk_1661657384116690310 to /10.251.106.37
081111 023013 27 INFO dfs.FSNamesystem: BLOCK* NameSystem.delete: blk_9180460506127105903 is added to invalidSet of 10.250.7.32:50010
081111 023013 27 INFO dfs.FSNamesystem: BLOCK* NameSystem.delete: blk_9180460506127105903 is added to invalidSet of 10.251.197.226:50010
081111 023013 27 INFO dfs.FSNamesystem: BLOCK* NameSystem.delete: blk_9180460506127105903 is added to invalidSet of 10.251.39.144:50010
081111 023014 27 INFO dfs.FSNamesystem: BLOCK* NameSystem.delete: blk_2087586991849997617 is added to invalidSet of 10.250.6.4:50010
081111 023014 27 INFO dfs.FSNamesystem: BLOCK* NameSystem.delete: blk_2087586991849997617 is added to invalidSet of 10.250.7.244:50010
081111 023014 27 INFO dfs.FSNamesystem: BLOCK* NameSystem.delete: blk_2087586991849997617 is added to invalidSet of 10.251.70.211:50010
081111 023018 27 INFO dfs.FSNamesystem: BLOCK* NameSystem.delete: blk_-5800886437115575722 is added to invalidSet of 10.250.7.146:50010
081111 023018 27 INFO dfs.FSNamesystem: BLOCK* NameSystem.delete: blk_-5800886437115575722 is added to invalidSet of 10.251.203.179:50010
081111 023018 27 INFO dfs.FSNamesystem: BLOCK* NameSystem.delete: blk_-5800886437115575722 is added to invalidSet of 10.251.29.239:50010
081111 023021 27 INFO dfs.FSNamesystem: BLOCK* NameSystem.delete: blk_-837335451734670522 is added to invalidSet of 10.250.14.38:50010
081111 023021 27 INFO dfs.FSNamesystem: BLOCK* NameSystem.delete: blk_-837335451734670522 is added to invalidSet of 10.250.15.67:50010
081111 023021 27 INFO dfs.FSNamesystem: BLOCK* NameSystem.delete: blk_-837335451734670522 is added to invalidSet of 10.251.67.4:50010
081111 023022 27 INFO dfs.FSNamesystem: BLOCK* NameSystem.delete: blk_1759394385544330241 is added to invalidSet of 10.251.195.33:50010
081111 023022 27 INFO dfs.FSNamesystem: BLOCK* NameSystem.delete: blk_1759394385544330241 is added to invalidSet of 10.251.30.101:50010
081111 023022 27 INFO dfs.FSNamesystem: BLOCK* NameSystem.delete: blk_1759394385544330241 is added to invalidSet of 10.251.71.97:50010
081111 023022 27 INFO dfs.FSNamesystem: BLOCK* NameSystem.delete: blk_5963495457158414297 is added to invalidSet of 10.251.30.134:50010
081111 023022 27 INFO dfs.FSNamesystem: BLOCK* NameSystem.delete: blk_5963495457158414297 is added to invalidSet of 10.251.37.240:50010
081111 023022 27 INFO dfs.FSNamesystem: BLOCK* NameSystem.delete: blk_5963495457158414297 is added to invalidSet of 10.251.71.240:50010
081111 023023 27 INFO dfs.FSNamesystem: BLOCK* NameSystem.delete: blk_-1487613146716399796 is added to invalidSet of 10.251.105.189:50010
081111 023023 27 INFO dfs.FSNamesystem: BLOCK* NameSystem.delete: blk_-1487613146716399796 is added to invalidSet of 10.251.123.99:50010
081111 023023 27 INFO dfs.FSNamesystem: BLOCK* NameSystem.delete: blk_-1487613146716399796 is added to invalidSet of 10.251.30.179:50010
081111 023025 27 INFO dfs.FSNamesystem: BLOCK* NameSystem.delete: blk_-8712198768474595123 is added to invalidSet of 10.251.127.191:50010
081111 023025 27 INFO dfs.FSNamesystem: BLOCK* NameSystem.delete: blk_-8712198768474595123 is added to invalidSet of 10.251.197.161:50010
081111 023025 27 INFO dfs.FSNamesystem: BLOCK* NameSystem.delete: blk_-8712198768474595123 is added to invalidSet of 10.251.39.160:50010
081111 023030 27 INFO dfs.FSNamesystem: BLOCK* NameSystem.delete: blk_-4097469754208342189 is added to invalidSet of 10.250.10.100:50010
081111 023030 27 INFO dfs.FSNamesystem: BLOCK* NameSystem.delete: blk_-4097469754208342189 is added to invalidSet of 10.250.14.224:50010
081111 023030 27 INFO dfs.FSNamesystem: BLOCK* NameSystem.delete: blk_-4097469754208342189 is added to invalidSet of 10.251.123.132:50010
081111 023032 27 INFO dfs.FSNamesystem: BLOCK* NameSystem.delete: blk_1661657384116690310 is added to invalidSet of 10.251.106.37:50010
081111 023032 27 INFO dfs.FSNamesystem: BLOCK* NameSystem.delete: blk_1661657384116690310 is added to invalidSet of 10.251.66.3:50010
081111 023032 27 INFO dfs.FSNamesystem: BLOCK* NameSystem.delete: blk_1661657384116690310 is added to invalidSet of 10.251.71.146:50010
081111 023033 27 INFO dfs.FSNamesystem: BLOCK* NameSystem.delete: blk_7687207479564573867 is added to invalidSet of 10.250.7.244:50010
081111 023033 27 INFO dfs.FSNamesystem: BLOCK* NameSystem.delete: blk_7687207479564573867 is added to invalidSet of 10.251.67.113:50010
081111 023033 27 INFO dfs.FSNamesystem: BLOCK* NameSystem.delete: blk_7687207479564573867 is added to invalidSet of 10.251.74.192:50010
081111 023035 27 INFO dfs.FSNamesystem: BLOCK* NameSystem.delete: blk_-2604912937805976340 is added to invalidSet of 10.251.197.161:50010
081111 023035 27 INFO dfs.FSNamesystem: BLOCK* NameSystem.delete: blk_-2604912937805976340 is added to invalidSet of 10.251.197.226:50010
081111 023035 27 INFO dfs.FSNamesystem: BLOCK* NameSystem.delete: blk_-2604912937805976340 is added to invalidSet of 10.251.38.214:50010
081111 023124 19 INFO dfs.FSDataset: Deleting block blk_-8712198768474595123 file /mnt/hadoop/dfs/data/current/subdir33/blk_-8712198768474595123
081111 023126 17706 INFO dfs.DataNode$DataXceiver: Receiving block blk_4536719068803231452 src: /10.251.105.189:49021 dest: /10.251.105.189:50010
081111 023126 17749 INFO dfs.DataNode$DataXceiver: Receiving block blk_4536719068803231452 src: /10.251.105.189:53191 dest: /10.251.105.189:50010
081111 023126 18035 INFO dfs.DataNode$DataXceiver: Receiving block blk_4536719068803231452 src: /10.251.31.180:57939 dest: /10.251.31.180:50010
081111 023126 34 INFO dfs.FSNamesystem: BLOCK* NameSystem.allocateBlock: /user/root/rand4/_temporary/_task_200811101024_0009_m_000039_0/part-00039. blk_4536719068803231452
081111 023137 19 INFO dfs.FSDataset: Deleting block blk_-8712198768474595123 file /mnt/hadoop/dfs/data/current/subdir55/blk_-8712198768474595123
081111 023148 17707 INFO dfs.DataNode$PacketResponder: PacketResponder 2 for block blk_4536719068803231452 terminating
081111 023148 17707 INFO dfs.DataNode$PacketResponder: Received block blk_4536719068803231452 of size 67108864 from /10.251.105.189
081111 023148 17750 INFO dfs.DataNode$PacketResponder: PacketResponder 1 for block blk_4536719068803231452 terminating
081111 023148 17750 INFO dfs.DataNode$PacketResponder: Received block blk_4536719068803231452 of size 67108864 from /10.251.105.189
081111 023148 18036 INFO dfs.DataNode$PacketResponder: PacketResponder 0 for block blk_4536719068803231452 terminating
081111 023148 18036 INFO dfs.DataNode$PacketResponder: Received block blk_4536719068803231452 of size 67108864 from /10.251.31.180
081111 023152 19 INFO dfs.FSDataset: Deleting block blk_-8712198768474595123 file /mnt/hadoop/dfs/data/current/subdir0/blk_-8712198768474595123
081111 023157 19 INFO dfs.FSDataset: Deleting block blk_-5800886437115575722 file /mnt/hadoop/dfs/data/current/subdir60/blk_-5800886437115575722
081111 023204 19 INFO dfs.FSDataset: Deleting block blk_-4097469754208342189 file /mnt/hadoop/dfs/data/current/subdir39/blk_-4097469754208342189
081111 023204 19 INFO dfs.FSDataset: Deleting block blk_-5800886437115575722 file /mnt/hadoop/dfs/data/current/subdir29/blk_-5800886437115575722
081111 023227 19 INFO dfs.FSDataset: Deleting block blk_-2604912937805976340 file /mnt/hadoop/dfs/data/current/subdir36/blk_-2604912937805976340
081111 023231 19 INFO dfs.FSDataset: Deleting block blk_-2604912937805976340 file /mnt/hadoop/dfs/data/current/subdir46/blk_-2604912937805976340
081111 023234 19 INFO dfs.FSDataset: Deleting block blk_-1487613146716399796 file /mnt/hadoop/dfs/data/current/subdir27/blk_-1487613146716399796
081111 023235 34 INFO dfs.FSNamesystem: BLOCK* NameSystem.addStoredBlock: blockMap updated: 10.251.31.180:50010 is added to blk_4536719068803231452 size 67108864
081111 023236 19 INFO dfs.FSDataset: Deleting block blk_1661657384116690310 file /mnt/hadoop/dfs/data/current/subdir44/blk_1661657384116690310
081111 023237 19 INFO dfs.FSDataset: Deleting block blk_-4097469754208342189 file /mnt/hadoop/dfs/data/current/subdir2/blk_-4097469754208342189
081111 023238 18 INFO dfs.FSDataset: Deleting block blk_-1487613146716399796 file /mnt/hadoop/dfs/data/current/subdir20/blk_-1487613146716399796
081111 023240 18 INFO dfs.FSDataset: Deleting block blk_-837335451734670522 file /mnt/hadoop/dfs/data/current/subdir52/blk_-837335451734670522
081111 023241 19 INFO dfs.FSDataset: Deleting block blk_1759394385544330241 file /mnt/hadoop/dfs/data/current/subdir43/blk_1759394385544330241
081111 023242 19 INFO dfs.FSDataset: Deleting block blk_-2604912937805976340 file /mnt/hadoop/dfs/data/current/subdir10/blk_-2604912937805976340
081111 023242 19 INFO dfs.FSDataset: Deleting block blk_-5800886437115575722 file /mnt/hadoop/dfs/data/current/subdir7/blk_-5800886437115575722
081111 023243 19 INFO dfs.FSDataset: Deleting block blk_1661657384116690310 file /mnt/hadoop/dfs/data/current/subdir15/blk_1661657384116690310
081111 023245 19 INFO dfs.FSDataset: Deleting block blk_2087586991849997617 file /mnt/hadoop/dfs/data/current/subdir47/blk_2087586991849997617
081111 023246 19 INFO dfs.FSDataset: Deleting block blk_1759394385544330241 file /mnt/hadoop/dfs/data/current/subdir18/blk_1759394385544330241
081111 023246 19 INFO dfs.FSDataset: Deleting block blk_5963495457158414297 file /mnt/hadoop/dfs/data/current/subdir5/blk_5963495457158414297
081111 023247 19 INFO dfs.FSDataset: Deleting block blk_-1487613146716399796 file /mnt/hadoop/dfs/data/current/subdir10/blk_-1487613146716399796
081111 023250 19 INFO dfs.FSDataset: Deleting block blk_-837335451734670522 file /mnt/hadoop/dfs/data/current/subdir54/blk_-837335451734670522
081111 023251 19 INFO dfs.FSDataset: Deleting block blk_2087586991849997617 file /mnt/hadoop/dfs/data/current/subdir30/blk_2087586991849997617
081111 023251 19 INFO dfs.FSDataset: Deleting block blk_5963495457158414297 file /mnt/hadoop/dfs/data/current/subdir15/blk_5963495457158414297
081111 023253 19 INFO dfs.FSDataset: Deleting block blk_-837335451734670522 file /mnt/hadoop/dfs/data/current/subdir50/blk_-837335451734670522
081111 023253 19 INFO dfs.FSDataset: Deleting block blk_9180460506127105903 file /mnt/hadoop/dfs/data/current/subdir30/blk_9180460506127105903
081111 023255 19 INFO dfs.FSDataset: Deleting block blk_1759394385544330241 file /mnt/hadoop/dfs/data/current/subdir44/blk_1759394385544330241
081111 023255 19 INFO dfs.FSDataset: Deleting block blk_2087586991849997617 file /mnt/hadoop/dfs/data/current/subdir47/blk_2087586991849997617
081111 023256 19 INFO dfs.FSDataset: Deleting block blk_-4097469754208342189 file /mnt/hadoop/dfs/data/current/subdir26/blk_-4097469754208342189
081111 023304 19 INFO dfs.FSDataset: Deleting block blk_5963495457158414297 file /mnt/hadoop/dfs/data/current/subdir11/blk_5963495457158414297
081111 023308 19 INFO dfs.FSDataset: Deleting block blk_7687207479564573867 file /mnt/hadoop/dfs/data/current/subdir19/blk_7687207479564573867
081111 023310 19 INFO dfs.FSDataset: Deleting block blk_9180460506127105903 file /mnt/hadoop/dfs/data/current/subdir7/blk_9180460506127105903
081111 023310 31 INFO dfs.FSNamesystem: BLOCK* NameSystem.addStoredBlock: blockMap updated: 10.251.27.63:50010 is added to blk_4536719068803231452 size 67108864
081111 023312 19 INFO dfs.FSDataset: Deleting block blk_7687207479564573867 file /mnt/hadoop/dfs/data/current/subdir53/blk_7687207479564573867
081111 023313 19 INFO dfs.FSDataset: Deleting block blk_9180460506127105903 file /mnt/hadoop/dfs/data/current/subdir39/blk_9180460506127105903
081111 023322 18 INFO dfs.FSDataset: Deleting block blk_7687207479564573867 file /mnt/hadoop/dfs/data/current/subdir2/blk_7687207479564573867
081111 023328 19 INFO dfs.FSDataset: Deleting block blk_1661657384116690310 file /mnt/hadoop/dfs/data/current/subdir12/blk_1661657384116690310
081111 023534 30 INFO dfs.FSNamesystem: BLOCK* NameSystem.addStoredBlock: blockMap updated: 10.251.105.189:50010 is added to blk_4536719068803231452 size 67108864
081111 024622 32 INFO dfs.FSNamesystem: BLOCK* NameSystem.allocateBlock: /user/root/rand4/_temporary/_task_200811101024_0009_m_000158_0/part-00158. blk_1586901079062939990
081111 024623 17878 INFO dfs.DataNode$DataXceiver: Receiving block blk_1586901079062939990 src: /10.251.70.5:43737 dest: /10.251.70.5:50010
081111 024623 17933 INFO dfs.DataNode$DataXceiver: Receiving block blk_1586901079062939990 src: /10.251.70.5:45474 dest: /10.251.70.5:50010
081111 024623 18046 INFO dfs.DataNode$DataXceiver: Receiving block blk_1586901079062939990 src: /10.251.74.192:53250 dest: /10.251.74.192:50010
081111 024651 18047 INFO dfs.DataNode$PacketResponder: Received block blk_1586901079062939990 of size 67108864 from /10.251.74.192
081111 024651 30 INFO dfs.FSNamesystem: BLOCK* NameSystem.addStoredBlock: blockMap updated: 10.251.70.37:50010 is added to blk_1586901079062939990 size 67108864
081111 024652 17879 INFO dfs.DataNode$PacketResponder: PacketResponder 2 for block blk_1586901079062939990 terminating
081111 024652 17879 INFO dfs.DataNode$PacketResponder: Received block blk_1586901079062939990 of size 67108864 from /10.251.70.5
081111 024652 17934 INFO dfs.DataNode$PacketResponder: PacketResponder 1 for block blk_1586901079062939990 terminating
081111 024652 17934 INFO dfs.DataNode$PacketResponder: Received block blk_1586901079062939990 of size 67108864 from /10.251.70.5
081111 024652 18047 INFO dfs.DataNode$PacketResponder: PacketResponder 0 for block blk_1586901079062939990 terminating
081111 024652 29 INFO dfs.FSNamesystem: BLOCK* NameSystem.addStoredBlock: blockMap updated: 10.251.70.5:50010 is added to blk_1586901079062939990 size 67108864
081111 024652 31 INFO dfs.FSNamesystem: BLOCK* NameSystem.addStoredBlock: blockMap updated: 10.251.74.192:50010 is added to blk_1586901079062939990 size 67108864
081111 025046 18080 INFO dfs.DataNode$DataXceiver: Receiving block blk_3337752311930281105 src: /10.251.71.193:46206 dest: /10.251.71.193:50010
081111 025046 18135 INFO dfs.DataNode$DataXceiver: Receiving block blk_3337752311930281105 src: /10.251.38.197:50257 dest: /10.251.38.197:50010
081111 025046 18230 INFO dfs.DataNode$DataXceiver: Receiving block blk_3337752311930281105 src: /10.251.38.197:39590 dest: /10.251.38.197:50010
081111 025046 31 INFO dfs.FSNamesystem: BLOCK* NameSystem.allocateBlock: /user/root/rand4/_temporary/_task_200811101024_0009_m_000171_0/part-00171. blk_3337752311930281105
081111 025048 18081 INFO dfs.DataNode$PacketResponder: PacketResponder 0 for block blk_3337752311930281105 terminating
081111 025048 18081 INFO dfs.DataNode$PacketResponder: Received block blk_3337752311930281105 of size 3537464 from /10.251.71.193
081111 025048 18137 INFO dfs.DataNode$PacketResponder: PacketResponder 2 for block blk_3337752311930281105 terminating
081111 025048 18137 INFO dfs.DataNode$PacketResponder: Received block blk_3337752311930281105 of size 3537464 from /10.251.38.197
081111 025048 18231 INFO dfs.DataNode$PacketResponder: PacketResponder 1 for block blk_3337752311930281105 terminating
081111 025048 18231 INFO dfs.DataNode$PacketResponder: Received block blk_3337752311930281105 of size 3537464 from /10.251.38.197
081111 025048 26 INFO dfs.FSNamesystem: BLOCK* NameSystem.addStoredBlock: blockMap updated: 10.251.38.197:50010 is added to blk_3337752311930281105 size 3537464
081111 025048 28 INFO dfs.FSNamesystem: BLOCK* NameSystem.addStoredBlock: blockMap updated: 10.251.71.193:50010 is added to blk_3337752311930281105 size 3537464
081111 025048 35 INFO dfs.FSNamesystem: BLOCK* NameSystem.addStoredBlock: blockMap updated: 10.250.10.213:50010 is added to blk_3337752311930281105 size 3537464
081111 030024 18250 INFO dfs.DataNode$DataXceiver: Receiving block blk_-5067295739748156564 src: /10.250.6.4:59735 dest: /10.250.6.4:50010
081111 030024 26 INFO dfs.FSNamesystem: BLOCK* NameSystem.allocateBlock: /user/root/rand4/_temporary/_task_200811101024_0009_m_000516_0/part-00516. blk_-5067295739748156564
081111 030025 18050 INFO dfs.DataNode$DataXceiver: Receiving block blk_-5067295739748156564 src: /10.250.6.4:41446 dest: /10.250.6.4:50010
081111 030025 18051 INFO dfs.DataNode$PacketResponder: PacketResponder 1 for block blk_-5067295739748156564 terminating
081111 030025 18051 INFO dfs.DataNode$PacketResponder: Received block blk_-5067295739748156564 of size 3541524 from /10.250.6.4
081111 030025 18251 INFO dfs.DataNode$PacketResponder: PacketResponder 2 for block blk_-5067295739748156564 terminating
081111 030025 18251 INFO dfs.DataNode$PacketResponder: Received block blk_-5067295739748156564 of size 3541524 from /10.250.6.4
081111 030025 18331 INFO dfs.DataNode$DataXceiver: Receiving block blk_-5067295739748156564 src: /10.251.202.209:55983 dest: /10.251.202.209:50010
081111 030025 18332 INFO dfs.DataNode$PacketResponder: PacketResponder 0 for block blk_-5067295739748156564 terminating
081111 030025 18332 INFO dfs.DataNode$PacketResponder: Received block blk_-5067295739748156564 of size 3541524 from /10.251.202.209
081111 030025 28 INFO dfs.FSNamesystem: BLOCK* NameSystem.addStoredBlock: blockMap updated: 10.250.6.4:50010 is added to blk_-5067295739748156564 size 3541524
081111 030025 29 INFO dfs.FSNamesystem: BLOCK* NameSystem.addStoredBlock: blockMap updated: 10.251.202.209:50010 is added to blk_-5067295739748156564 size 3541524
081111 030025 32 INFO dfs.FSNamesystem: BLOCK* NameSystem.addStoredBlock: blockMap updated: 10.251.110.196:50010 is added to blk_-5067295739748156564 size 3541524
081111 030205 18247 INFO dfs.DataNode$DataXceiver: Receiving block blk_-4601088814492816064 src: /10.251.66.192:33237 dest: /10.251.66.192:50010
081111 030205 18295 INFO dfs.DataNode$DataXceiver: Receiving block blk_-4601088814492816064 src: /10.251.111.209:41001 dest: /10.251.111.209:50010
081111 030205 18456 INFO dfs.DataNode$DataXceiver: Receiving block blk_-4601088814492816064 src: /10.251.111.209:36175 dest: /10.251.111.209:50010
081111 030205 31 INFO dfs.FSNamesystem: BLOCK* NameSystem.allocateBlock: /user/root/rand4/_temporary/_task_200811101024_0009_m_001081_0/part-01081. blk_-4601088814492816064
081111 030232 18248 INFO dfs.DataNode$PacketResponder: PacketResponder 0 for block blk_-4601088814492816064 terminating
081111 030232 18248 INFO dfs.DataNode$PacketResponder: Received block blk_-4601088814492816064 of size 67108864 from /10.251.66.192
081111 030232 18296 INFO dfs.DataNode$PacketResponder: PacketResponder 1 for block blk_-4601088814492816064 terminating
081111 030232 18296 INFO dfs.DataNode$PacketResponder: Received block blk_-4601088814492816064 of size 67108864 from /10.251.111.209
081111 030232 18457 INFO dfs.DataNode$PacketResponder: PacketResponder 2 for block blk_-4601088814492816064 terminating
081111 030232 18457 INFO dfs.DataNode$PacketResponder: Received block blk_-4601088814492816064 of size 67108864 from /10.251.111.209
081111 030232 29 INFO dfs.FSNamesystem: BLOCK* NameSystem.addStoredBlock: blockMap updated: 10.251.66.192:50010 is added to blk_-4601088814492816064 size 67108864
081111 030232 31 INFO dfs.FSNamesystem: BLOCK* NameSystem.addStoredBlock: blockMap updated: 10.250.7.32:50010 is added to blk_-4601088814492816064 size 67108864
081111 030233 34 INFO dfs.FSNamesystem: BLOCK* NameSystem.addStoredBlock: blockMap updated: 10.251.111.209:50010 is added to blk_-4601088814492816064 size 67108864
081111 030838 18500 INFO dfs.DataNode$DataXceiver: Receiving block blk_9083077642262159134 src: /10.251.122.79:51397 dest: /10.251.122.79:50010
081111 030838 26 INFO dfs.FSNamesystem: BLOCK* NameSystem.allocateBlock: /user/root/rand4/_temporary/_task_200811101024_0009_m_001224_0/part-01224. blk_9083077642262159134
081111 030841 18325 INFO dfs.DataNode$DataXceiver: Receiving block blk_9083077642262159134 src: /10.251.39.64:46659 dest: /10.251.39.64:50010
081111 030841 18384 INFO dfs.DataNode$DataXceiver: Receiving block blk_9083077642262159134 src: /10.251.122.79:33602 dest: /10.251.122.79:50010
081111 030911 18326 INFO dfs.DataNode$PacketResponder: PacketResponder 0 for block blk_9083077642262159134 terminating
081111 030911 18326 INFO dfs.DataNode$PacketResponder: Received block blk_9083077642262159134 of size 67108864 from /10.251.39.64
081111 030911 18501 INFO dfs.DataNode$PacketResponder: PacketResponder 2 for block blk_9083077642262159134 terminating
081111 030911 18501 INFO dfs.DataNode$PacketResponder: Received block blk_9083077642262159134 of size 67108864 from /10.251.122.79
081111 030911 29 INFO dfs.FSNamesystem: BLOCK* NameSystem.addStoredBlock: blockMap updated: 10.251.122.79:50010 is added to blk_9083077642262159134 size 67108864
081111 030911 35 INFO dfs.FSNamesystem: BLOCK* NameSystem.addStoredBlock: blockMap updated: 10.251.91.159:50010 is added to blk_9083077642262159134 size 67108864
081111 030912 18385 INFO dfs.DataNode$PacketResponder: PacketResponder 1 for block blk_9083077642262159134 terminating
081111 030912 18385 INFO dfs.DataNode$PacketResponder: Received block blk_9083077642262159134 of size 67108864 from /10.251.122.79
081111 030912 31 INFO dfs.FSNamesystem: BLOCK* NameSystem.addStoredBlock: blockMap updated: 10.251.39.64:50010 is added to blk_9083077642262159134 size 67108864
081111 031334 18335 INFO dfs.DataNode$DataXceiver: Receiving block blk_8252693881382821323 src: /10.250.11.85:56157 dest: /10.250.11.85:50010
081111 031334 18514 INFO dfs.DataNode$DataXceiver: Receiving block blk_8252693881382821323 src: /10.250.11.85:34660 dest: /10.250.11.85:50010
081111 031334 28 INFO dfs.FSNamesystem: BLOCK* NameSystem.allocateBlock: /user/root/rand4/_temporary/_task_200811101024_0009_m_001466_0/part-01466. blk_8252693881382821323
081111 031335 18656 INFO dfs.DataNode$DataXceiver: Receiving block blk_8252693881382821323 src: /10.250.5.161:50585 dest: /10.250.5.161:50010
081111 031427 18337 INFO dfs.DataNode$PacketResponder: PacketResponder 2 for block blk_8252693881382821323 terminating
081111 031427 18337 INFO dfs.DataNode$PacketResponder: Received block blk_8252693881382821323 of size 67108864 from /10.250.11.85
081111 031427 18515 INFO dfs.DataNode$PacketResponder: PacketResponder 1 for block blk_8252693881382821323 terminating
081111 031427 18515 INFO dfs.DataNode$PacketResponder: Received block blk_8252693881382821323 of size 67108864 from /10.250.11.85
081111 031427 18657 INFO dfs.DataNode$PacketResponder: PacketResponder 0 for block blk_8252693881382821323 terminating
081111 031427 18657 INFO dfs.DataNode$PacketResponder: Received block blk_8252693881382821323 of size 67108864 from /10.250.5.161
081111 031427 27 INFO dfs.FSNamesystem: BLOCK* NameSystem.addStoredBlock: blockMap updated: 10.251.199.86:50010 is added to blk_8252693881382821323 size 67108864
081111 031427 34 INFO dfs.FSNamesystem: BLOCK* NameSystem.addStoredBlock: blockMap updated: 10.250.11.85:50010 is added to blk_8252693881382821323 size 67108864
081111 031427 34 INFO dfs.FSNamesystem: BLOCK* NameSystem.addStoredBlock: blockMap updated: 10.250.5.161:50010 is added to blk_8252693881382821323 size 67108864
081111 032351 17812 INFO dfs.DataNode$DataXceiver: Receiving block blk_7091322099579569460 src: /10.251.214.130:33119 dest: /10.251.214.130:50010
081111 032351 18715 INFO dfs.DataNode$DataXceiver: Receiving block blk_7091322099579569460 src: /10.251.89.155:54088 dest: /10.251.89.155:50010
081111 032351 18785 INFO dfs.DataNode$DataXceiver: Receiving block blk_7091322099579569460 src: /10.251.89.155:33920 dest: /10.251.89.155:50010
081111 032351 26 INFO dfs.FSNamesystem: BLOCK* NameSystem.allocateBlock: /user/root/rand4/_temporary/_task_200811101024_0009_m_001534_0/part-01534. blk_7091322099579569460
081111 032421 17813 INFO dfs.DataNode$PacketResponder: PacketResponder 0 for block blk_7091322099579569460 terminating
081111 032421 17813 INFO dfs.DataNode$PacketResponder: Received block blk_7091322099579569460 of size 67108864 from /10.251.214.130
081111 032421 18716 INFO dfs.DataNode$PacketResponder: PacketResponder 1 for block blk_7091322099579569460 terminating
081111 032421 18716 INFO dfs.DataNode$PacketResponder: Received block blk_7091322099579569460 of size 67108864 from /10.251.89.155
081111 032421 18786 INFO dfs.DataNode$PacketResponder: PacketResponder 2 for block blk_7091322099579569460 terminating
081111 032421 18786 INFO dfs.DataNode$PacketResponder: Received block blk_7091322099579569460 of size 67108864 from /10.251.89.155
081111 032421 26 INFO dfs.FSNamesystem: BLOCK* NameSystem.addStoredBlock: blockMap updated: 10.251.89.155:50010 is added to blk_7091322099579569460 size 67108864
081111 032421 31 INFO dfs.FSNamesystem: BLOCK* NameSystem.addStoredBlock: blockMap updated: 10.251.214.130:50010 is added to blk_7091322099579569460 size 67108864
081111 032421 34 INFO dfs.FSNamesystem: BLOCK* NameSystem.addStoredBlock: blockMap updated: 10.251.106.10:50010 is added to blk_7091322099579569460 size 67108864
081111 033406 19188 INFO dfs.DataNode$DataXceiver: Receiving block blk_-3978659515570505328 src: /10.250.6.191:52061 dest: /10.250.6.191:50010
081111 033406 32 INFO dfs.FSNamesystem: BLOCK* NameSystem.allocateBlock: /user/root/rand4/_temporary/_task_200811101024_0009_m_001856_1/part-01856. blk_-3978659515570505328
081111 033411 18699 INFO dfs.DataNode$DataXceiver: Receiving block blk_-3978659515570505328 src: /10.251.39.179:37816 dest: /10.251.39.179:50010
081111 033411 19009 INFO dfs.DataNode$DataXceiver: Receiving block blk_-3978659515570505328 src: /10.250.6.191:54222 dest: /10.250.6.191:50010
081111 033434 18700 INFO dfs.DataNode$PacketResponder: PacketResponder 0 for block blk_-3978659515570505328 terminating
081111 033434 18700 INFO dfs.DataNode$PacketResponder: Received block blk_-3978659515570505328 of size 47913550 from /10.251.39.179
081111 033434 19010 INFO dfs.DataNode$PacketResponder: Received block blk_-3978659515570505328 of size 47913550 from /10.250.6.191
081111 033434 26 INFO dfs.FSNamesystem: BLOCK* NameSystem.addStoredBlock: blockMap updated: 10.251.202.209:50010 is added to blk_-3978659515570505328 size 47913550
081111 033434 33 INFO dfs.FSNamesystem: BLOCK* NameSystem.addStoredBlock: blockMap updated: 10.251.39.179:50010 is added to blk_-3978659515570505328 size 47913550
081111 033435 19010 INFO dfs.DataNode$PacketResponder: PacketResponder 1 for block blk_-3978659515570505328 terminating
081111 033435 19192 INFO dfs.DataNode$PacketResponder: PacketResponder 2 for block blk_-3978659515570505328 terminating
081111 033435 19192 INFO dfs.DataNode$PacketResponder: Received block blk_-3978659515570505328 of size 47913550 from /10.250.6.191
081111 033435 34 INFO dfs.FSNamesystem: BLOCK* NameSystem.addStoredBlock: blockMap updated: 10.250.6.191:50010 is added to blk_-3978659515570505328 size 47913550
081111 033620 18935 INFO dfs.DataNode$DataXceiver: Receiving block blk_-2303238328615897431 src: /10.250.10.223:42727 dest: /10.250.10.223:50010
081111 033620 19097 INFO dfs.DataNode$DataXceiver: Receiving block blk_-2303238328615897431 src: /10.250.6.191:50449 dest: /10.250.6.191:50010
081111 033620 19242 INFO dfs.DataNode$DataXceiver: Receiving block blk_-2303238328615897431 src: /10.250.10.223:42156 dest: /10.250.10.223:50010
081111 033620 32 INFO dfs.FSNamesystem: BLOCK* NameSystem.allocateBlock: /user/root/rand4/_temporary/_task_200811101024_0009_m_001974_1/part-01974. blk_-2303238328615897431
081111 033630 19098 INFO dfs.DataNode$PacketResponder: PacketResponder 0 for block blk_-2303238328615897431 terminating
081111 033630 19098 INFO dfs.DataNode$PacketResponder: Received block blk_-2303238328615897431 of size 67108864 from /10.250.6.191
081111 033630 19243 INFO dfs.DataNode$PacketResponder: PacketResponder 1 for block blk_-2303238328615897431 terminating
081111 033630 19243 INFO dfs.DataNode$PacketResponder: Received block blk_-2303238328615897431 of size 67108864 from /10.250.10.223
081111 033630 30 INFO dfs.FSNamesystem: BLOCK* NameSystem.addStoredBlock: blockMap updated: 10.251.127.47:50010 is added to blk_-2303238328615897431 size 67108864
081111 033630 31 INFO dfs.FSNamesystem: BLOCK* NameSystem.addStoredBlock: blockMap updated: 10.250.6.191:50010 is added to blk_-2303238328615897431 size 67108864
081111 033630 32 INFO dfs.FSNamesystem: BLOCK* NameSystem.addStoredBlock: blockMap updated: 10.250.10.223:50010 is added to blk_-2303238328615897431 size 67108864
081111 033631 18936 INFO dfs.DataNode$PacketResponder: PacketResponder 2 for block blk_-2303238328615897431 terminating
081111 033631 18936 INFO dfs.DataNode$PacketResponder: Received block blk_-2303238328615897431 of size 67108864 from /10.250.10.223
081111 033823 31 INFO dfs.FSNamesystem: BLOCK* NameSystem.delete: blk_-3978659515570505328 is added to invalidSet of 10.250.6.191:50010
081111 033823 31 INFO dfs.FSNamesystem: BLOCK* NameSystem.delete: blk_-3978659515570505328 is added to invalidSet of 10.251.202.209:50010
081111 033823 31 INFO dfs.FSNamesystem: BLOCK* NameSystem.delete: blk_-3978659515570505328 is added to invalidSet of 10.251.39.179:50010
081111 033825 19 INFO dfs.FSDataset: Deleting block blk_-3978659515570505328 file /mnt/hadoop/dfs/data/current/subdir27/blk_-3978659515570505328
081111 033825 33 INFO dfs.FSNamesystem: BLOCK* NameSystem.delete: blk_-2303238328615897431 is added to invalidSet of 10.250.10.223:50010
081111 033825 33 INFO dfs.FSNamesystem: BLOCK* NameSystem.delete: blk_-2303238328615897431 is added to invalidSet of 10.250.6.191:50010
081111 033825 33 INFO dfs.FSNamesystem: BLOCK* NameSystem.delete: blk_-2303238328615897431 is added to invalidSet of 10.251.127.47:50010
081111 033827 19 INFO dfs.FSDataset: Deleting block blk_-3978659515570505328 file /mnt/hadoop/dfs/data/current/subdir17/blk_-3978659515570505328
081111 033828 19 INFO dfs.FSDataset: Deleting block blk_-2303238328615897431 file /mnt/hadoop/dfs/data/current/subdir27/blk_-2303238328615897431
081111 033828 19 INFO dfs.FSDataset: Deleting block blk_-2303238328615897431 file /mnt/hadoop/dfs/data/current/subdir36/blk_-2303238328615897431
081111 033847 19 INFO dfs.FSDataset: Deleting block blk_-3978659515570505328 file /mnt/hadoop/dfs/data/current/subdir55/blk_-3978659515570505328
081111 033851 19 INFO dfs.FSDataset: Deleting block blk_-2303238328615897431 file /mnt/hadoop/dfs/data/current/subdir52/blk_-2303238328615897431
081111 040900 19497 INFO dfs.DataNode$DataXceiver: Receiving block blk_-7462142984596510569 src: /10.251.111.130:47247 dest: /10.251.111.130:50010
081111 040900 19512 INFO dfs.DataNode$DataXceiver: Receiving block blk_-7462142984596510569 src: /10.250.10.213:35914 dest: /10.250.10.213:50010
081111 040900 19544 INFO dfs.DataNode$DataXceiver: Receiving block blk_-7462142984596510569 src: /10.250.10.213:36504 dest: /10.250.10.213:50010
081111 040900 35 INFO dfs.FSNamesystem: BLOCK* NameSystem.allocateBlock: /user/root/randtxt4/_temporary/_task_200811101024_0010_m_001115_0/part-01115. blk_-7462142984596510569
081111 040924 19292 INFO dfs.DataNode$DataXceiver: Receiving block blk_6293249075173320026 src: /10.251.198.196:52441 dest: /10.251.198.196:50010
081111 040924 30 INFO dfs.FSNamesystem: BLOCK* NameSystem.allocateBlock: /user/root/randtxt4/_temporary/_task_200811101024_0010_m_001175_0/part-01175. blk_6293249075173320026
081111 040925 19599 INFO dfs.DataNode$DataXceiver: Receiving block blk_6293249075173320026 src: /10.251.198.196:47294 dest: /10.251.198.196:50010
081111 040928 19292 INFO dfs.DataNode$DataXceiver: writeBlock blk_6293249075173320026 received exception java.io.IOException: Could not read from stream
081111 040943 19498 INFO dfs.DataNode$PacketResponder: PacketResponder 0 for block blk_-7462142984596510569 terminating
081111 040943 19498 INFO dfs.DataNode$PacketResponder: Received block blk_-7462142984596510569 of size 67108864 from /10.251.111.130
081111 040943 31 INFO dfs.FSNamesystem: BLOCK* NameSystem.addStoredBlock: blockMap updated: 10.251.71.97:50010 is added to blk_-7462142984596510569 size 67108864
081111 040944 19515 INFO dfs.DataNode$PacketResponder: PacketResponder 2 for block blk_-7462142984596510569 terminating
081111 040944 19515 INFO dfs.DataNode$PacketResponder: Received block blk_-7462142984596510569 of size 67108864 from /10.250.10.213
081111 040944 19545 INFO dfs.DataNode$PacketResponder: PacketResponder 1 for block blk_-7462142984596510569 terminating
081111 040944 19545 INFO dfs.DataNode$PacketResponder: Received block blk_-7462142984596510569 of size 67108864 from /10.250.10.213
081111 040944 30 INFO dfs.FSNamesystem: BLOCK* NameSystem.addStoredBlock: blockMap updated: 10.250.10.213:50010 is added to blk_-7462142984596510569 size 67108864
081111 040944 34 INFO dfs.FSNamesystem: BLOCK* NameSystem.addStoredBlock: blockMap updated: 10.251.111.130:50010 is added to blk_-7462142984596510569 size 67108864
081111 041241 19035 INFO dfs.DataNode$DataXceiver: Receiving block blk_-7730379743685198052 src: /10.251.215.16:46205 dest: /10.251.215.16:50010
081111 041241 19706 INFO dfs.DataNode$DataXceiver: Receiving block blk_-7730379743685198052 src: /10.251.215.16:50869 dest: /10.251.215.16:50010
081111 041241 31 INFO dfs.FSNamesystem: BLOCK* NameSystem.allocateBlock: /user/root/randtxt4/_temporary/_task_200811101024_0010_m_001042_0/part-01042. blk_-7730379743685198052
081111 041242 19814 INFO dfs.DataNode$DataXceiver: Receiving block blk_-7730379743685198052 src: /10.251.91.32:50011 dest: /10.251.91.32:50010
081111 041325 19036 INFO dfs.DataNode$PacketResponder: PacketResponder 1 for block blk_-7730379743685198052 terminating
081111 041325 19036 INFO dfs.DataNode$PacketResponder: Received block blk_-7730379743685198052 of size 67108864 from /10.251.215.16
081111 041325 19707 INFO dfs.DataNode$PacketResponder: PacketResponder 2 for block blk_-7730379743685198052 terminating
081111 041325 19707 INFO dfs.DataNode$PacketResponder: Received block blk_-7730379743685198052 of size 67108864 from /10.251.215.16
081111 041325 19815 INFO dfs.DataNode$PacketResponder: PacketResponder 0 for block blk_-7730379743685198052 terminating
081111 041325 19815 INFO dfs.DataNode$PacketResponder: Received block blk_-7730379743685198052 of size 67108864 from /10.251.91.32
081111 041325 28 INFO dfs.FSNamesystem: BLOCK* NameSystem.addStoredBlock: blockMap updated: 10.251.91.32:50010 is added to blk_-7730379743685198052 size 67108864
081111 041325 30 INFO dfs.FSNamesystem: BLOCK* NameSystem.addStoredBlock: blockMap updated: 10.251.215.16:50010 is added to blk_-7730379743685198052 size 67108864
081111 041325 34 INFO dfs.FSNamesystem: BLOCK* NameSystem.addStoredBlock: blockMap updated: 10.251.75.79:50010 is added to blk_-7730379743685198052 size 67108864
081111 041412 19580 INFO dfs.DataNode$DataXceiver: Receiving block blk_2101413476602285950 src: /10.250.11.53:43291 dest: /10.250.11.53:50010
081111 041412 19712 INFO dfs.DataNode$DataXceiver: Receiving block blk_2101413476602285950 src: /10.251.122.79:34671 dest: /10.251.122.79:50010
081111 041412 19858 INFO dfs.DataNode$DataXceiver: Receiving block blk_2101413476602285950 src: /10.251.122.79:35238 dest: /10.251.122.79:50010
081111 041412 35 INFO dfs.FSNamesystem: BLOCK* NameSystem.allocateBlock: /user/root/randtxt4/_temporary/_task_200811101024_0010_m_001354_0/part-01354. blk_2101413476602285950
081111 041449 19581 INFO dfs.DataNode$PacketResponder: PacketResponder 0 for block blk_2101413476602285950 terminating
081111 041449 19581 INFO dfs.DataNode$PacketResponder: Received block blk_2101413476602285950 of size 67108864 from /10.250.11.53
081111 041449 19713 INFO dfs.DataNode$PacketResponder: PacketResponder 2 for block blk_2101413476602285950 terminating
081111 041449 19713 INFO dfs.DataNode$PacketResponder: Received block blk_2101413476602285950 of size 67108864 from /10.251.122.79
081111 041449 19860 INFO dfs.DataNode$PacketResponder: PacketResponder 1 for block blk_2101413476602285950 terminating
081111 041449 19860 INFO dfs.DataNode$PacketResponder: Received block blk_2101413476602285950 of size 67108864 from /10.251.122.79
081111 041449 29 INFO dfs.FSNamesystem: BLOCK* NameSystem.addStoredBlock: blockMap updated: 10.251.122.79:50010 is added to blk_2101413476602285950 size 67108864
081111 041449 31 INFO dfs.FSNamesystem: BLOCK* NameSystem.addStoredBlock: blockMap updated: 10.251.125.237:50010 is added to blk_2101413476602285950 size 67108864
081111 041450 26 INFO dfs.FSNamesystem: BLOCK* NameSystem.addStoredBlock: blockMap updated: 10.250.11.53:50010 is added to blk_2101413476602285950 size 67108864
081111 041804 19598 INFO dfs.DataNode$DataXceiver: Receiving block blk_-1258970750471497949 src: /10.251.111.228:36812 dest: /10.251.111.228:50010
081111 041804 19856 INFO dfs.DataNode$DataXceiver: Receiving block blk_-1258970750471497949 src: /10.251.111.228:55652 dest: /10.251.111.228:50010
081111 041804 27 INFO dfs.FSNamesystem: BLOCK* NameSystem.allocateBlock: /user/root/randtxt4/_temporary/_task_200811101024_0010_m_001220_0/part-01220. blk_-1258970750471497949
081111 041805 19603 INFO dfs.DataNode$DataXceiver: Receiving block blk_-1258970750471497949 src: /10.250.14.143:45500 dest: /10.250.14.143:50010
081111 041855 19599 INFO dfs.DataNode$PacketResponder: PacketResponder 1 for block blk_-1258970750471497949 terminating
081111 041855 19599 INFO dfs.DataNode$PacketResponder: Received block blk_-1258970750471497949 of size 67108864 from /10.251.111.228
081111 041855 19604 INFO dfs.DataNode$PacketResponder: PacketResponder 0 for block blk_-1258970750471497949 terminating
081111 041855 19604 INFO dfs.DataNode$PacketResponder: Received block blk_-1258970750471497949 of size 67108864 from /10.250.14.143
081111 041855 19857 INFO dfs.DataNode$PacketResponder: PacketResponder 2 for block blk_-1258970750471497949 terminating
081111 041855 19857 INFO dfs.DataNode$PacketResponder: Received block blk_-1258970750471497949 of size 67108864 from /10.251.111.228
081111 041855 26 INFO dfs.FSNamesystem: BLOCK* NameSystem.addStoredBlock: blockMap updated: 10.251.214.225:50010 is added to blk_-1258970750471497949 size 67108864
081111 041855 29 INFO dfs.FSNamesystem: BLOCK* NameSystem.addStoredBlock: blockMap updated: 10.251.111.228:50010 is added to blk_-1258970750471497949 size 67108864
081111 041855 35 INFO dfs.FSNamesystem: BLOCK* NameSystem.addStoredBlock: blockMap updated: 10.250.14.143:50010 is added to blk_-1258970750471497949 size 67108864
081111 041956 19587 INFO dfs.DataNode$DataXceiver: Receiving block blk_-3811620628420807585 src: /10.251.122.79:58471 dest: /10.251.122.79:50010
081111 041956 19785 INFO dfs.DataNode$DataXceiver: Receiving block blk_-3811620628420807585 src: /10.251.42.16:39849 dest: /10.251.42.16:50010
081111 041956 19824 INFO dfs.DataNode$DataXceiver: Receiving block blk_-3811620628420807585 src: /10.251.122.79:51973 dest: /10.251.122.79:50010
081111 041956 34 INFO dfs.FSNamesystem: BLOCK* NameSystem.allocateBlock: /user/root/randtxt4/_temporary/_task_200811101024_0010_m_001354_0/part-01354. blk_-3811620628420807585
081111 042037 19786 INFO dfs.DataNode$PacketResponder: PacketResponder 0 for block blk_-3811620628420807585 terminating
081111 042037 19786 INFO dfs.DataNode$PacketResponder: Received block blk_-3811620628420807585 of size 67108864 from /10.251.42.16
081111 042037 29 INFO dfs.FSNamesystem: BLOCK* NameSystem.addStoredBlock: blockMap updated: 10.251.39.242:50010 is added to blk_-3811620628420807585 size 67108864
081111 042038 19588 INFO dfs.DataNode$PacketResponder: PacketResponder 1 for block blk_-3811620628420807585 terminating
081111 042038 19588 INFO dfs.DataNode$PacketResponder: Received block blk_-3811620628420807585 of size 67108864 from /10.251.122.79
081111 042038 19827 INFO dfs.DataNode$PacketResponder: PacketResponder 2 for block blk_-3811620628420807585 terminating
081111 042038 19827 INFO dfs.DataNode$PacketResponder: Received block blk_-3811620628420807585 of size 67108864 from /10.251.122.79
081111 042038 29 INFO dfs.FSNamesystem: BLOCK* NameSystem.addStoredBlock: blockMap updated: 10.251.122.79:50010 is added to blk_-3811620628420807585 size 67108864
081111 042038 31 INFO dfs.FSNamesystem: BLOCK* NameSystem.addStoredBlock: blockMap updated: 10.251.42.16:50010 is added to blk_-3811620628420807585 size 67108864
081111 042128 31 INFO dfs.FSNamesystem: BLOCK* NameSystem.allocateBlock: /user/root/randtxt4/_temporary/_task_200811101024_0010_m_001444_0/part-01444. blk_3262584283770188686
081111 042129 19567 INFO dfs.DataNode$DataXceiver: Receiving block blk_3262584283770188686 src: /10.251.74.134:33572 dest: /10.251.74.134:50010
081111 042129 20195 INFO dfs.DataNode$DataXceiver: Receiving block blk_3262584283770188686 src: /10.251.74.134:43189 dest: /10.251.74.134:50010
081111 042130 19767 INFO dfs.DataNode$DataXceiver: Receiving block blk_3262584283770188686 src: /10.251.73.220:46528 dest: /10.251.73.220:50010
081111 042217 19570 INFO dfs.DataNode$PacketResponder: PacketResponder 1 for block blk_3262584283770188686 terminating
081111 042217 19570 INFO dfs.DataNode$PacketResponder: Received block blk_3262584283770188686 of size 67108864 from /10.251.74.134
081111 042217 19768 INFO dfs.DataNode$PacketResponder: PacketResponder 0 for block blk_3262584283770188686 terminating
081111 042217 19768 INFO dfs.DataNode$PacketResponder: Received block blk_3262584283770188686 of size 67108864 from /10.251.73.220
081111 042217 20196 INFO dfs.DataNode$PacketResponder: PacketResponder 2 for block blk_3262584283770188686 terminating
081111 042217 20196 INFO dfs.DataNode$PacketResponder: Received block blk_3262584283770188686 of size 67108864 from /10.251.74.134
081111 042217 28 INFO dfs.FSNamesystem: BLOCK* NameSystem.addStoredBlock: blockMap updated: 10.251.74.134:50010 is added to blk_3262584283770188686 size 67108864
081111 042217 30 INFO dfs.FSNamesystem: BLOCK* NameSystem.addStoredBlock: blockMap updated: 10.251.65.237:50010 is added to blk_3262584283770188686 size 67108864
081111 042217 33 INFO dfs.FSNamesystem: BLOCK* NameSystem.addStoredBlock: blockMap updated: 10.251.73.220:50010 is added to blk_3262584283770188686 size 67108864
081111 043011 20096 INFO dfs.DataNode$DataXceiver: Receiving block blk_5792008451513210055 src: /10.250.6.223:52800 dest: /10.250.6.223:50010
081111 043012 19901 INFO dfs.DataNode$DataXceiver: Receiving block blk_5792008451513210055 src: /10.250.6.223:47777 dest: /10.250.6.223:50010
081111 043012 31 INFO dfs.FSNamesystem: BLOCK* NameSystem.allocateBlock: /user/root/randtxt4/_temporary/_task_200811101024_0010_m_001870_0/part-01870. blk_5792008451513210055
081111 043013 20117 INFO dfs.DataNode$DataXceiver: Receiving block blk_4408250450468908043 src: /10.251.215.50:54432 dest: /10.251.215.50:50010
081111 043013 20255 INFO dfs.DataNode$DataXceiver: Receiving block blk_4408250450468908043 src: /10.251.215.50:44421 dest: /10.251.215.50:50010
081111 043013 33 INFO dfs.FSNamesystem: BLOCK* NameSystem.allocateBlock: /user/root/randtxt4/_temporary/_task_200811101024_0010_m_001945_0/part-01945. blk_4408250450468908043
081111 043014 20189 INFO dfs.DataNode$DataXceiver: Receiving block blk_4408250450468908043 src: /10.251.39.144:39482 dest: /10.251.39.144:50010
081111 043016 19637 INFO dfs.DataNode$DataXceiver: Receiving block blk_5792008451513210055 src: /10.251.110.68:59788 dest: /10.251.110.68:50010
081111 043055 19638 INFO dfs.DataNode$PacketResponder: PacketResponder 0 for block blk_5792008451513210055 terminating
081111 043055 19638 INFO dfs.DataNode$PacketResponder: Received block blk_5792008451513210055 of size 67108864 from /10.251.110.68
081111 043055 19904 INFO dfs.DataNode$PacketResponder: PacketResponder 1 for block blk_5792008451513210055 terminating
081111 043055 19904 INFO dfs.DataNode$PacketResponder: Received block blk_5792008451513210055 of size 67108864 from /10.250.6.223
081111 043055 20098 INFO dfs.DataNode$PacketResponder: PacketResponder 2 for block blk_5792008451513210055 terminating
081111 043055 20098 INFO dfs.DataNode$PacketResponder: Received block blk_5792008451513210055 of size 67108864 from /10.250.6.223
081111 043056 27 INFO dfs.FSNamesystem: BLOCK* NameSystem.addStoredBlock: blockMap updated: 10.251.203.166:50010 is added to blk_5792008451513210055 size 67108864
081111 043056 33 INFO dfs.FSNamesystem: BLOCK* NameSystem.addStoredBlock: blockMap updated: 10.250.6.223:50010 is added to blk_5792008451513210055 size 67108864
081111 043056 34 INFO dfs.FSNamesystem: BLOCK* NameSystem.addStoredBlock: blockMap updated: 10.251.110.68:50010 is added to blk_5792008451513210055 size 67108864
081111 043059 20118 INFO dfs.DataNode$PacketResponder: PacketResponder 2 for block blk_4408250450468908043 terminating
081111 043059 20118 INFO dfs.DataNode$PacketResponder: Received block blk_4408250450468908043 of size 67108864 from /10.251.215.50
081111 043059 20191 INFO dfs.DataNode$PacketResponder: PacketResponder 0 for block blk_4408250450468908043 terminating
081111 043059 20191 INFO dfs.DataNode$PacketResponder: Received block blk_4408250450468908043 of size 67108864 from /10.251.39.144
081111 043059 20256 INFO dfs.DataNode$PacketResponder: PacketResponder 1 for block blk_4408250450468908043 terminating
081111 043059 20256 INFO dfs.DataNode$PacketResponder: Received block blk_4408250450468908043 of size 67108864 from /10.251.215.50
081111 043059 27 INFO dfs.FSNamesystem: BLOCK* NameSystem.addStoredBlock: blockMap updated: 10.251.215.50:50010 is added to blk_4408250450468908043 size 67108864
081111 043059 31 INFO dfs.FSNamesystem: BLOCK* NameSystem.addStoredBlock: blockMap updated: 10.251.39.144:50010 is added to blk_4408250450468908043 size 67108864
081111 043059 35 INFO dfs.FSNamesystem: BLOCK* NameSystem.addStoredBlock: blockMap updated: 10.250.18.114:50010 is added to blk_4408250450468908043 size 67108864
081111 043814 20224 INFO dfs.DataNode$DataXceiver: Receiving block blk_-6003326439148142233 src: /10.251.89.155:43673 dest: /10.251.89.155:50010
081111 043814 35 INFO dfs.FSNamesystem: BLOCK* NameSystem.allocateBlock: /user/root/randtxt4/_temporary/_task_200811101024_0010_m_002027_1/part-02027. blk_-6003326439148142233
081111 043815 18472 INFO dfs.DataNode$DataXceiver: Receiving block blk_-6003326439148142233 src: /10.251.107.227:48178 dest: /10.251.107.227:50010
081111 043815 19811 INFO dfs.DataNode$DataXceiver: Receiving block blk_-6003326439148142233 src: /10.251.89.155:40751 dest: /10.251.89.155:50010
081111 043839 18474 INFO dfs.DataNode$PacketResponder: PacketResponder 0 for block blk_-6003326439148142233 terminating
081111 043839 18474 INFO dfs.DataNode$PacketResponder: Received block blk_-6003326439148142233 of size 67108864 from /10.251.107.227
081111 043839 19812 INFO dfs.DataNode$PacketResponder: PacketResponder 1 for block blk_-6003326439148142233 terminating
081111 043839 19812 INFO dfs.DataNode$PacketResponder: Received block blk_-6003326439148142233 of size 67108864 from /10.251.89.155
081111 043839 20225 INFO dfs.DataNode$PacketResponder: PacketResponder 2 for block blk_-6003326439148142233 terminating
081111 043839 20225 INFO dfs.DataNode$PacketResponder: Received block blk_-6003326439148142233 of size 67108864 from /10.251.89.155
081111 043839 27 INFO dfs.FSNamesystem: BLOCK* NameSystem.addStoredBlock: blockMap updated: 10.251.107.227:50010 is added to blk_-6003326439148142233 size 67108864
081111 043839 29 INFO dfs.FSNamesystem: BLOCK* NameSystem.addStoredBlock: blockMap updated: 10.251.89.155:50010 is added to blk_-6003326439148142233 size 67108864
081111 043839 35 INFO dfs.FSNamesystem: BLOCK* NameSystem.addStoredBlock: blockMap updated: 10.251.107.50:50010 is added to blk_-6003326439148142233 size 67108864
081111 044259 34 INFO dfs.FSNamesystem: BLOCK* NameSystem.delete: blk_-6003326439148142233 is added to invalidSet of 10.251.107.227:50010
081111 044259 34 INFO dfs.FSNamesystem: BLOCK* NameSystem.delete: blk_-6003326439148142233 is added to invalidSet of 10.251.107.50:50010
081111 044259 34 INFO dfs.FSNamesystem: BLOCK* NameSystem.delete: blk_-6003326439148142233 is added to invalidSet of 10.251.89.155:50010
081111 044303 35 INFO dfs.FSNamesystem: BLOCK* NameSystem.delete: blk_4536719068803231452 is added to invalidSet of 10.251.105.189:50010
081111 044303 35 INFO dfs.FSNamesystem: BLOCK* NameSystem.delete: blk_4536719068803231452 is added to invalidSet of 10.251.27.63:50010
081111 044303 35 INFO dfs.FSNamesystem: BLOCK* NameSystem.delete: blk_4536719068803231452 is added to invalidSet of 10.251.31.180:50010
081111 044304 35 INFO dfs.FSNamesystem: BLOCK* NameSystem.delete: blk_1586901079062939990 is added to invalidSet of 10.251.70.37:50010
081111 044304 35 INFO dfs.FSNamesystem: BLOCK* NameSystem.delete: blk_1586901079062939990 is added to invalidSet of 10.251.70.5:50010
081111 044304 35 INFO dfs.FSNamesystem: BLOCK* NameSystem.delete: blk_1586901079062939990 is added to invalidSet of 10.251.74.192:50010
081111 044304 35 INFO dfs.FSNamesystem: BLOCK* NameSystem.delete: blk_3337752311930281105 is added to invalidSet of 10.250.10.213:50010
081111 044304 35 INFO dfs.FSNamesystem: BLOCK* NameSystem.delete: blk_3337752311930281105 is added to invalidSet of 10.251.38.197:50010
081111 044304 35 INFO dfs.FSNamesystem: BLOCK* NameSystem.delete: blk_3337752311930281105 is added to invalidSet of 10.251.71.193:50010
081111 044308 35 INFO dfs.FSNamesystem: BLOCK* NameSystem.delete: blk_-5067295739748156564 is added to invalidSet of 10.250.6.4:50010
081111 044308 35 INFO dfs.FSNamesystem: BLOCK* NameSystem.delete: blk_-5067295739748156564 is added to invalidSet of 10.251.110.196:50010
081111 044308 35 INFO dfs.FSNamesystem: BLOCK* NameSystem.delete: blk_-5067295739748156564 is added to invalidSet of 10.251.202.209:50010
081111 044315 35 INFO dfs.FSNamesystem: BLOCK* NameSystem.delete: blk_-4601088814492816064 is added to invalidSet of 10.250.7.32:50010
081111 044315 35 INFO dfs.FSNamesystem: BLOCK* NameSystem.delete: blk_-4601088814492816064 is added to invalidSet of 10.251.111.209:50010
081111 044315 35 INFO dfs.FSNamesystem: BLOCK* NameSystem.delete: blk_-4601088814492816064 is added to invalidSet of 10.251.66.192:50010
081111 044316 35 INFO dfs.FSNamesystem: BLOCK* NameSystem.delete: blk_9083077642262159134 is added to invalidSet of 10.251.122.79:50010
081111 044316 35 INFO dfs.FSNamesystem: BLOCK* NameSystem.delete: blk_9083077642262159134 is added to invalidSet of 10.251.39.64:50010
081111 044316 35 INFO dfs.FSNamesystem: BLOCK* NameSystem.delete: blk_9083077642262159134 is added to invalidSet of 10.251.91.159:50010
081111 044319 35 INFO dfs.FSNamesystem: BLOCK* NameSystem.delete: blk_8252693881382821323 is added to invalidSet of 10.250.11.85:50010
081111 044319 35 INFO dfs.FSNamesystem: BLOCK* NameSystem.delete: blk_8252693881382821323 is added to invalidSet of 10.250.5.161:50010
081111 044319 35 INFO dfs.FSNamesystem: BLOCK* NameSystem.delete: blk_8252693881382821323 is added to invalidSet of 10.251.199.86:50010
081111 044320 35 INFO dfs.FSNamesystem: BLOCK* NameSystem.delete: blk_7091322099579569460 is added to invalidSet of 10.251.106.10:50010
081111 044320 35 INFO dfs.FSNamesystem: BLOCK* NameSystem.delete: blk_7091322099579569460 is added to invalidSet of 10.251.214.130:50010
081111 044320 35 INFO dfs.FSNamesystem: BLOCK* NameSystem.delete: blk_7091322099579569460 is added to invalidSet of 10.251.89.155:50010
081111 044328 29 INFO dfs.FSNamesystem: BLOCK* NameSystem.delete: blk_-3255141258448150225 is added to invalidSet of 10.251.67.4:50010
081111 044328 29 INFO dfs.FSNamesystem: BLOCK* NameSystem.delete: blk_-3255141258448150225 is added to invalidSet of 10.251.74.192:50010
081111 044328 29 INFO dfs.FSNamesystem: BLOCK* NameSystem.delete: blk_-3255141258448150225 is added to invalidSet of 10.251.75.163:50010
081111 044331 29 INFO dfs.FSNamesystem: BLOCK* NameSystem.delete: blk_-2356618783398960832 is added to invalidSet of 10.251.107.242:50010
081111 044331 29 INFO dfs.FSNamesystem: BLOCK* NameSystem.delete: blk_-2356618783398960832 is added to invalidSet of 10.251.202.181:50010
081111 044331 29 INFO dfs.FSNamesystem: BLOCK* NameSystem.delete: blk_-2356618783398960832 is added to invalidSet of 10.251.214.175:50010
081111 044336 29 INFO dfs.FSNamesystem: BLOCK* NameSystem.delete: blk_-9110392840622333992 is added to invalidSet of 10.251.214.112:50010
081111 044336 29 INFO dfs.FSNamesystem: BLOCK* NameSystem.delete: blk_-9110392840622333992 is added to invalidSet of 10.251.30.85:50010
081111 044336 29 INFO dfs.FSNamesystem: BLOCK* NameSystem.delete: blk_-9110392840622333992 is added to invalidSet of 10.251.70.37:50010
081111 044339 29 INFO dfs.FSNamesystem: BLOCK* NameSystem.delete: blk_2677563927192510554 is added to invalidSet of 10.250.17.177:50010
081111 044339 29 INFO dfs.FSNamesystem: BLOCK* NameSystem.delete: blk_2677563927192510554 is added to invalidSet of 10.251.43.21:50010
081111 044339 29 INFO dfs.FSNamesystem: BLOCK* NameSystem.delete: blk_2677563927192510554 is added to invalidSet of 10.251.75.79:50010
081111 044341 29 INFO dfs.FSNamesystem: BLOCK* NameSystem.delete: blk_8288141732045416368 is added to invalidSet of 10.250.10.144:50010
081111 044341 29 INFO dfs.FSNamesystem: BLOCK* NameSystem.delete: blk_8288141732045416368 is added to invalidSet of 10.251.111.130:50010
081111 044341 29 INFO dfs.FSNamesystem: BLOCK* NameSystem.delete: blk_8288141732045416368 is added to invalidSet of 10.251.122.38:50010
081111 044342 19 INFO dfs.FSDataset: Deleting block blk_-4601088814492816064 file /mnt/hadoop/dfs/data/current/subdir62/blk_-4601088814492816064
081111 044343 29 INFO dfs.FSNamesystem: BLOCK* NameSystem.delete: blk_-1290598724593617423 is added to invalidSet of 10.251.125.237:50010
081111 044343 29 INFO dfs.FSNamesystem: BLOCK* NameSystem.delete: blk_-1290598724593617423 is added to invalidSet of 10.251.126.22:50010
081111 044343 29 INFO dfs.FSNamesystem: BLOCK* NameSystem.delete: blk_-1290598724593617423 is added to invalidSet of 10.251.197.226:50010
081111 044346 29 INFO dfs.FSNamesystem: BLOCK* NameSystem.delete: blk_3579245467550408822 is added to invalidSet of 10.251.123.132:50010
081111 044346 29 INFO dfs.FSNamesystem: BLOCK* NameSystem.delete: blk_3579245467550408822 is added to invalidSet of 10.251.31.242:50010
081111 044346 29 INFO dfs.FSNamesystem: BLOCK* NameSystem.delete: blk_3579245467550408822 is added to invalidSet of 10.251.71.240:50010
081111 044348 29 INFO dfs.FSNamesystem: BLOCK* NameSystem.delete: blk_798098943729239371 is added to invalidSet of 10.251.107.196:50010
081111 044348 29 INFO dfs.FSNamesystem: BLOCK* NameSystem.delete: blk_798098943729239371 is added to invalidSet of 10.251.30.101:50010
081111 044348 29 INFO dfs.FSNamesystem: BLOCK* NameSystem.delete: blk_798098943729239371 is added to invalidSet of 10.251.90.64:50010
081111 044350 29 INFO dfs.FSNamesystem: BLOCK* NameSystem.delete: blk_-1322234263704117214 is added to invalidSet of 10.251.194.102:50010
081111 044350 29 INFO dfs.FSNamesystem: BLOCK* NameSystem.delete: blk_-1322234263704117214 is added to invalidSet of 10.251.215.70:50010
081111 044350 29 INFO dfs.FSNamesystem: BLOCK* NameSystem.delete: blk_-1322234263704117214 is added to invalidSet of 10.251.75.49:50010
081111 044358 20017 INFO dfs.DataNode$DataXceiver: Receiving block blk_2481804181292966518 src: /10.250.7.230:45395 dest: /10.250.7.230:50010
081111 044358 20042 INFO dfs.DataNode$DataXceiver: Receiving block blk_2481804181292966518 src: /10.251.203.149:59131 dest: /10.251.203.149:50010
081111 044358 20215 INFO dfs.DataNode$DataXceiver: Receiving block blk_2481804181292966518 src: /10.251.203.149:35961 dest: /10.251.203.149:50010
081111 044358 35 INFO dfs.FSNamesystem: BLOCK* NameSystem.allocateBlock: /user/root/rand5/_temporary/_task_200811101024_0011_m_000030_0/part-00030. blk_2481804181292966518
081111 044428 19 INFO dfs.FSDataset: Deleting block blk_9083077642262159134 file /mnt/hadoop/dfs/data/current/subdir49/blk_9083077642262159134
081111 044438 20018 INFO dfs.DataNode$PacketResponder: PacketResponder 0 for block blk_2481804181292966518 terminating
081111 044438 20018 INFO dfs.DataNode$PacketResponder: Received block blk_2481804181292966518 of size 67108864 from /10.250.7.230
081111 044439 20043 INFO dfs.DataNode$PacketResponder: PacketResponder 2 for block blk_2481804181292966518 terminating
081111 044439 20043 INFO dfs.DataNode$PacketResponder: Received block blk_2481804181292966518 of size 67108864 from /10.251.203.149
081111 044439 20217 INFO dfs.DataNode$PacketResponder: PacketResponder 1 for block blk_2481804181292966518 terminating
081111 044439 20217 INFO dfs.DataNode$PacketResponder: Received block blk_2481804181292966518 of size 67108864 from /10.251.203.149
081111 044439 32 INFO dfs.FSNamesystem: BLOCK* NameSystem.addStoredBlock: blockMap updated: 10.250.7.230:50010 is added to blk_2481804181292966518 size 67108864
081111 044446 19 INFO dfs.FSDataset: Deleting block blk_-9110392840622333992 file /mnt/hadoop/dfs/data/current/subdir45/blk_-9110392840622333992
081111 044452 19 INFO dfs.FSDataset: Deleting block blk_-9110392840622333992 file /mnt/hadoop/dfs/data/current/subdir62/blk_-9110392840622333992
081111 044552 19 INFO dfs.FSDataset: Deleting block blk_-2356618783398960832 file /mnt/hadoop/dfs/data/current/blk_-2356618783398960832
081111 044608 19 INFO dfs.FSDataset: Deleting block blk_-6003326439148142233 file /mnt/hadoop/dfs/data/current/subdir15/blk_-6003326439148142233
081111 044621 19 INFO dfs.FSDataset: Deleting block blk_-5067295739748156564 file /mnt/hadoop/dfs/data/current/subdir59/blk_-5067295739748156564
081111 044622 19 INFO dfs.FSDataset: Deleting block blk_-6003326439148142233 file /mnt/hadoop/dfs/data/current/subdir27/blk_-6003326439148142233
081111 044631 19 INFO dfs.FSDataset: Deleting block blk_-3255141258448150225 file /mnt/hadoop/dfs/data/current/blk_-3255141258448150225
081111 044639 19 INFO dfs.FSDataset: Deleting block blk_-4601088814492816064 file /mnt/hadoop/dfs/data/current/subdir63/blk_-4601088814492816064
081111 044641 19 INFO dfs.FSDataset: Deleting block blk_-1322234263704117214 file /mnt/hadoop/dfs/data/current/subdir31/blk_-1322234263704117214
081111 044658 19 INFO dfs.FSDataset: Deleting block blk_-1290598724593617423 file /mnt/hadoop/dfs/data/current/subdir57/blk_-1290598724593617423
081111 044700 19 INFO dfs.FSDataset: Deleting block blk_-4601088814492816064 file /mnt/hadoop/dfs/data/current/subdir21/blk_-4601088814492816064
081111 044701 19 INFO dfs.FSDataset: Deleting block blk_-2356618783398960832 file /mnt/hadoop/dfs/data/current/subdir35/blk_-2356618783398960832
081111 044702 19 INFO dfs.FSDataset: Deleting block blk_-1290598724593617423 file /mnt/hadoop/dfs/data/current/subdir3/blk_-1290598724593617423
081111 044705 19 INFO dfs.FSDataset: Deleting block blk_-1322234263704117214 file /mnt/hadoop/dfs/data/current/subdir20/blk_-1322234263704117214
081111 044709 19 INFO dfs.FSDataset: Deleting block blk_-5067295739748156564 file /mnt/hadoop/dfs/data/current/subdir50/blk_-5067295739748156564
081111 044712 18 INFO dfs.FSDataset: Deleting block blk_-3255141258448150225 file /mnt/hadoop/dfs/data/current/blk_-3255141258448150225
081111 044713 19 INFO dfs.FSDataset: Deleting block blk_2677563927192510554 file /mnt/hadoop/dfs/data/current/subdir25/blk_2677563927192510554
081111 044716 19 INFO dfs.FSDataset: Deleting block blk_3337752311930281105 file /mnt/hadoop/dfs/data/current/subdir57/blk_3337752311930281105
081111 044718 19 INFO dfs.FSDataset: Deleting block blk_3337752311930281105 file /mnt/hadoop/dfs/data/current/subdir4/blk_3337752311930281105
081111 044723 19 INFO dfs.FSDataset: Deleting block blk_-2356618783398960832 file /mnt/hadoop/dfs/data/current/subdir51/blk_-2356618783398960832
081111 044726 19 INFO dfs.FSDataset: Deleting block blk_4536719068803231452 file /mnt/hadoop/dfs/data/current/subdir51/blk_4536719068803231452
081111 044731 19 INFO dfs.FSDataset: Deleting block blk_-1290598724593617423 file /mnt/hadoop/dfs/data/current/subdir6/blk_-1290598724593617423
081111 044732 19 INFO dfs.FSDataset: Deleting block blk_798098943729239371 file /mnt/hadoop/dfs/data/current/subdir3/blk_798098943729239371
081111 044733 19 INFO dfs.FSDataset: Deleting block blk_798098943729239371 file /mnt/hadoop/dfs/data/current/subdir4/blk_798098943729239371
081111 044735 19 INFO dfs.FSDataset: Deleting block blk_-1322234263704117214 file /mnt/hadoop/dfs/data/current/subdir13/blk_-1322234263704117214
081111 044737 19 INFO dfs.FSDataset: Deleting block blk_3337752311930281105 file /mnt/hadoop/dfs/data/current/subdir1/blk_3337752311930281105
081111 044738 34 INFO dfs.FSNamesystem: BLOCK* NameSystem.addStoredBlock: blockMap updated: 10.251.203.149:50010 is added to blk_2481804181292966518 size 67108864
081111 044746 18 INFO dfs.FSDataset: Deleting block blk_9083077642262159134 file /mnt/hadoop/dfs/data/current/subdir24/blk_9083077642262159134
081111 044750 19 INFO dfs.FSDataset: Deleting block blk_2677563927192510554 file /mnt/hadoop/dfs/data/current/subdir31/blk_2677563927192510554
081111 044750 19 INFO dfs.FSDataset: Deleting block blk_798098943729239371 file /mnt/hadoop/dfs/data/current/subdir42/blk_798098943729239371
081111 044752 19 INFO dfs.FSDataset: Deleting block blk_2677563927192510554 file /mnt/hadoop/dfs/data/current/subdir63/blk_2677563927192510554
081111 044753 18 INFO dfs.FSDataset: Deleting block blk_1586901079062939990 file /mnt/hadoop/dfs/data/current/subdir28/blk_1586901079062939990
081111 044753 19 WARN dfs.FSDataset: Unexpected error trying to delete block blk_9083077642262159134. BlockInfo not found in volumeMap.
081111 044755 19 INFO dfs.FSDataset: Deleting block blk_3579245467550408822 file /mnt/hadoop/dfs/data/current/subdir24/blk_3579245467550408822
081111 044757 19 INFO dfs.FSDataset: Deleting block blk_-3255141258448150225 file /mnt/hadoop/dfs/data/current/blk_-3255141258448150225
081111 044757 34 INFO dfs.FSNamesystem: BLOCK* NameSystem.addStoredBlock: blockMap updated: 10.251.215.70:50010 is added to blk_2481804181292966518 size 67108864
081111 044800 19 INFO dfs.FSDataset: Deleting block blk_3579245467550408822 file /mnt/hadoop/dfs/data/current/subdir13/blk_3579245467550408822
081111 044801 18 INFO dfs.FSDataset: Deleting block blk_4536719068803231452 file /mnt/hadoop/dfs/data/current/subdir46/blk_4536719068803231452
081111 044802 18 INFO dfs.FSDataset: Deleting block blk_-9110392840622333992 file /mnt/hadoop/dfs/data/current/subdir10/blk_-9110392840622333992
081111 044802 19 INFO dfs.FSDataset: Deleting block blk_8288141732045416368 file /mnt/hadoop/dfs/data/current/subdir34/blk_8288141732045416368
081111 044810 18 INFO dfs.FSDataset: Deleting block blk_7091322099579569460 file /mnt/hadoop/dfs/data/current/subdir2/blk_7091322099579569460
081111 044814 19 INFO dfs.FSDataset: Deleting block blk_8288141732045416368 file /mnt/hadoop/dfs/data/current/subdir15/blk_8288141732045416368
081111 044815 19 INFO dfs.FSDataset: Deleting block blk_8252693881382821323 file /mnt/hadoop/dfs/data/current/subdir55/blk_8252693881382821323
081111 044831 19 INFO dfs.FSDataset: Deleting block blk_3579245467550408822 file /mnt/hadoop/dfs/data/current/subdir38/blk_3579245467550408822
081111 044832 18 INFO dfs.FSDataset: Deleting block blk_1586901079062939990 file /mnt/hadoop/dfs/data/current/subdir18/blk_1586901079062939990
081111 044837 19 INFO dfs.FSDataset: Deleting block blk_8252693881382821323 file /mnt/hadoop/dfs/data/current/subdir51/blk_8252693881382821323
081111 044855 19 INFO dfs.FSDataset: Deleting block blk_7091322099579569460 file /mnt/hadoop/dfs/data/current/subdir17/blk_7091322099579569460
081111 044908 19 INFO dfs.FSDataset: Deleting block blk_9083077642262159134 file /mnt/hadoop/dfs/data/current/subdir18/blk_9083077642262159134
081111 044920 19 INFO dfs.FSDataset: Deleting block blk_8252693881382821323 file /mnt/hadoop/dfs/data/current/subdir16/blk_8252693881382821323
081111 044926 19 INFO dfs.FSDataset: Deleting block blk_4536719068803231452 file /mnt/hadoop/dfs/data/current/subdir17/blk_4536719068803231452
081111 044934 19 INFO dfs.FSDataset: Deleting block blk_-5067295739748156564 file /mnt/hadoop/dfs/data/current/subdir63/blk_-5067295739748156564
081111 044940 19 INFO dfs.FSDataset: Deleting block blk_8288141732045416368 file /mnt/hadoop/dfs/data/current/subdir62/blk_8288141732045416368
081111 045000 19 INFO dfs.FSDataset: Deleting block blk_1586901079062939990 file /mnt/hadoop/dfs/data/current/subdir50/blk_1586901079062939990
081111 045213 20052 INFO dfs.DataNode$DataXceiver: Receiving block blk_8060144582419214410 src: /10.251.25.237:36107 dest: /10.251.25.237:50010
081111 045213 32 INFO dfs.FSNamesystem: BLOCK* NameSystem.allocateBlock: /user/root/rand5/_temporary/_task_200811101024_0011_m_000254_0/part-00254. blk_8060144582419214410
081111 045214 20266 INFO dfs.DataNode$DataXceiver: Receiving block blk_8060144582419214410 src: /10.251.25.237:56159 dest: /10.251.25.237:50010
081111 045214 20368 INFO dfs.DataNode$DataXceiver: Receiving block blk_8060144582419214410 src: /10.250.10.6:45008 dest: /10.250.10.6:50010
081111 045301 20053 INFO dfs.DataNode$PacketResponder: PacketResponder 2 for block blk_8060144582419214410 terminating
081111 045301 20053 INFO dfs.DataNode$PacketResponder: Received block blk_8060144582419214410 of size 67108864 from /10.251.25.237
081111 045301 20267 INFO dfs.DataNode$PacketResponder: PacketResponder 1 for block blk_8060144582419214410 terminating
081111 045301 20267 INFO dfs.DataNode$PacketResponder: Received block blk_8060144582419214410 of size 67108864 from /10.251.25.237
081111 045301 20369 INFO dfs.DataNode$PacketResponder: PacketResponder 0 for block blk_8060144582419214410 terminating
081111 045301 20369 INFO dfs.DataNode$PacketResponder: Received block blk_8060144582419214410 of size 67108864 from /10.250.10.6
081111 045301 28 INFO dfs.FSNamesystem: BLOCK* NameSystem.addStoredBlock: blockMap updated: 10.251.70.211:50010 is added to blk_8060144582419214410 size 67108864
081111 045301 31 INFO dfs.FSNamesystem: BLOCK* NameSystem.addStoredBlock: blockMap updated: 10.251.25.237:50010 is added to blk_8060144582419214410 size 67108864
081111 045302 28 INFO dfs.FSNamesystem: BLOCK* NameSystem.addStoredBlock: blockMap updated: 10.250.10.6:50010 is added to blk_8060144582419214410 size 67108864
081111 045313 20076 INFO dfs.DataNode$DataXceiver: Receiving block blk_1282830315552291603 src: /10.251.71.146:36116 dest: /10.251.71.146:50010
081111 045313 20196 INFO dfs.DataNode$DataXceiver: Receiving block blk_1282830315552291603 src: /10.251.25.237:37513 dest: /10.251.25.237:50010
081111 045313 20274 INFO dfs.DataNode$DataXceiver: Receiving block blk_1282830315552291603 src: /10.251.71.146:53062 dest: /10.251.71.146:50010
081111 045313 33 INFO dfs.FSNamesystem: BLOCK* NameSystem.allocateBlock: /user/root/rand5/_temporary/_task_200811101024_0011_m_000232_0/part-00232. blk_1282830315552291603
081111 045349 20077 INFO dfs.DataNode$PacketResponder: PacketResponder 1 for block blk_1282830315552291603 terminating
081111 045349 20077 INFO dfs.DataNode$PacketResponder: Received block blk_1282830315552291603 of size 67108864 from /10.251.71.146
081111 045349 20178 INFO dfs.DataNode$DataXceiver: Receiving block blk_-2305038116359260879 src: /10.251.43.115:38517 dest: /10.251.43.115:50010
081111 045349 20197 INFO dfs.DataNode$PacketResponder: PacketResponder 0 for block blk_1282830315552291603 terminating
081111 045349 20197 INFO dfs.DataNode$PacketResponder: Received block blk_1282830315552291603 of size 67108864 from /10.251.25.237
081111 045349 20275 INFO dfs.DataNode$PacketResponder: PacketResponder 2 for block blk_1282830315552291603 terminating
081111 045349 20275 INFO dfs.DataNode$PacketResponder: Received block blk_1282830315552291603 of size 67108864 from /10.251.71.146
081111 045349 20281 INFO dfs.DataNode$DataXceiver: Receiving block blk_-2305038116359260879 src: /10.251.39.192:51145 dest: /10.251.39.192:50010
081111 045349 20383 INFO dfs.DataNode$DataXceiver: Receiving block blk_-2305038116359260879 src: /10.251.43.115:45457 dest: /10.251.43.115:50010
081111 045349 26 INFO dfs.FSNamesystem: BLOCK* NameSystem.addStoredBlock: blockMap updated: 10.251.35.1:50010 is added to blk_1282830315552291603 size 67108864
081111 045349 28 INFO dfs.FSNamesystem: BLOCK* NameSystem.addStoredBlock: blockMap updated: 10.251.25.237:50010 is added to blk_1282830315552291603 size 67108864
081111 045349 30 INFO dfs.FSNamesystem: BLOCK* NameSystem.addStoredBlock: blockMap updated: 10.251.71.146:50010 is added to blk_1282830315552291603 size 67108864
081111 045349 32 INFO dfs.FSNamesystem: BLOCK* NameSystem.allocateBlock: /user/root/rand5/_temporary/_task_200811101024_0011_m_000264_0/part-00264. blk_-2305038116359260879
081111 045407 19 INFO dfs.FSDataset: Deleting block blk_-6003326439148142233 file /mnt/hadoop/dfs/data/current/subdir20/blk_-6003326439148142233
081111 045419 20179 INFO dfs.DataNode$PacketResponder: PacketResponder 1 for block blk_-2305038116359260879 terminating
081111 045419 20179 INFO dfs.DataNode$PacketResponder: Received block blk_-2305038116359260879 of size 67108864 from /10.251.43.115
081111 045419 20282 INFO dfs.DataNode$PacketResponder: PacketResponder 0 for block blk_-2305038116359260879 terminating
081111 045419 20282 INFO dfs.DataNode$PacketResponder: Received block blk_-2305038116359260879 of size 67108864 from /10.251.39.192
081111 045419 20384 INFO dfs.DataNode$PacketResponder: PacketResponder 2 for block blk_-2305038116359260879 terminating
081111 045419 20384 INFO dfs.DataNode$PacketResponder: Received block blk_-2305038116359260879 of size 67108864 from /10.251.43.115
081111 045419 27 INFO dfs.FSNamesystem: BLOCK* NameSystem.addStoredBlock: blockMap updated: 10.251.39.192:50010 is added to blk_-2305038116359260879 size 67108864
081111 045419 30 INFO dfs.FSNamesystem: BLOCK* NameSystem.addStoredBlock: blockMap updated: 10.251.194.213:50010 is added to blk_-2305038116359260879 size 67108864
081111 045419 31 INFO dfs.FSNamesystem: BLOCK* NameSystem.addStoredBlock: blockMap updated: 10.251.43.115:50010 is added to blk_-2305038116359260879 size 67108864
081111 050340 19 INFO dfs.FSDataset: Deleting block blk_7091322099579569460 file /mnt/hadoop/dfs/data/current/subdir55/blk_7091322099579569460
081111 050722 20439 INFO dfs.DataNode$DataXceiver: Receiving block blk_-5134438259366364485 src: /10.251.90.239:59373 dest: /10.251.90.239:50010
081111 050722 20511 INFO dfs.DataNode$DataXceiver: Receiving block blk_-5134438259366364485 src: /10.251.90.64:33675 dest: /10.251.90.64:50010
081111 050722 20543 INFO dfs.DataNode$DataXceiver: Receiving block blk_-5134438259366364485 src: /10.251.90.239:53879 dest: /10.251.90.239:50010
081111 050722 35 INFO dfs.FSNamesystem: BLOCK* NameSystem.allocateBlock: /user/root/rand5/_temporary/_task_200811101024_0011_m_000588_0/part-00588. blk_-5134438259366364485
081111 050746 20442 INFO dfs.DataNode$PacketResponder: PacketResponder 1 for block blk_-5134438259366364485 terminating
081111 050746 20442 INFO dfs.DataNode$PacketResponder: Received block blk_-5134438259366364485 of size 67108864 from /10.251.90.239
081111 050746 20512 INFO dfs.DataNode$PacketResponder: PacketResponder 0 for block blk_-5134438259366364485 terminating
081111 050746 20512 INFO dfs.DataNode$PacketResponder: Received block blk_-5134438259366364485 of size 67108864 from /10.251.90.64
081111 050746 20544 INFO dfs.DataNode$PacketResponder: PacketResponder 2 for block blk_-5134438259366364485 terminating
081111 050746 20544 INFO dfs.DataNode$PacketResponder: Received block blk_-5134438259366364485 of size 67108864 from /10.251.90.239
081111 050746 27 INFO dfs.FSNamesystem: BLOCK* NameSystem.addStoredBlock: blockMap updated: 10.251.125.174:50010 is added to blk_-5134438259366364485 size 67108864
081111 050746 29 INFO dfs.FSNamesystem: BLOCK* NameSystem.addStoredBlock: blockMap updated: 10.251.90.239:50010 is added to blk_-5134438259366364485 size 67108864
081111 050746 30 INFO dfs.FSNamesystem: BLOCK* NameSystem.addStoredBlock: blockMap updated: 10.251.90.64:50010 is added to blk_-5134438259366364485 size 67108864
081111 051118 20760 INFO dfs.DataNode$DataXceiver: Receiving block blk_-5730617745256796042 src: /10.251.70.112:40101 dest: /10.251.70.112:50010
081111 051118 32 INFO dfs.FSNamesystem: BLOCK* NameSystem.allocateBlock: /user/root/rand5/_temporary/_task_200811101024_0011_m_000780_0/part-00780. blk_-5730617745256796042
081111 051119 20666 INFO dfs.DataNode$DataXceiver: Receiving block blk_-5730617745256796042 src: /10.251.70.112:53461 dest: /10.251.70.112:50010
081111 051119 20873 INFO dfs.DataNode$DataXceiver: Receiving block blk_-5730617745256796042 src: /10.251.194.213:57188 dest: /10.251.194.213:50010
081111 051222 20667 INFO dfs.DataNode$PacketResponder: PacketResponder 1 for block blk_-5730617745256796042 terminating
081111 051222 20667 INFO dfs.DataNode$PacketResponder: Received block blk_-5730617745256796042 of size 67108864 from /10.251.70.112
081111 051222 20761 INFO dfs.DataNode$PacketResponder: PacketResponder 2 for block blk_-5730617745256796042 terminating
081111 051222 20761 INFO dfs.DataNode$PacketResponder: Received block blk_-5730617745256796042 of size 67108864 from /10.251.70.112
081111 051222 20874 INFO dfs.DataNode$PacketResponder: PacketResponder 0 for block blk_-5730617745256796042 terminating
081111 051222 20874 INFO dfs.DataNode$PacketResponder: Received block blk_-5730617745256796042 of size 67108864 from /10.251.194.213
081111 051222 27 INFO dfs.FSNamesystem: BLOCK* NameSystem.addStoredBlock: blockMap updated: 10.251.194.213:50010 is added to blk_-5730617745256796042 size 67108864
081111 051222 27 INFO dfs.FSNamesystem: BLOCK* NameSystem.addStoredBlock: blockMap updated: 10.251.71.193:50010 is added to blk_-5730617745256796042 size 67108864
081111 051222 30 INFO dfs.FSNamesystem: BLOCK* NameSystem.addStoredBlock: blockMap updated: 10.251.70.112:50010 is added to blk_-5730617745256796042 size 67108864
081111 052051 20761 INFO dfs.DataNode$DataXceiver: Receiving block blk_-7200032078273665712 src: /10.251.91.229:39787 dest: /10.251.91.229:50010
081111 052051 20926 INFO dfs.DataNode$DataXceiver: Receiving block blk_-7200032078273665712 src: /10.251.91.229:54999 dest: /10.251.91.229:50010
081111 052051 21020 INFO dfs.DataNode$DataXceiver: Receiving block blk_-7200032078273665712 src: /10.251.91.159:36849 dest: /10.251.91.159:50010
081111 052051 34 INFO dfs.FSNamesystem: BLOCK* NameSystem.allocateBlock: /user/root/rand5/_temporary/_task_200811101024_0011_m_001313_0/part-01313. blk_-7200032078273665712
081111 052132 20763 INFO dfs.DataNode$PacketResponder: PacketResponder 1 for block blk_-7200032078273665712 terminating
081111 052132 20763 INFO dfs.DataNode$PacketResponder: Received block blk_-7200032078273665712 of size 67108864 from /10.251.91.229
081111 052132 21021 INFO dfs.DataNode$PacketResponder: PacketResponder 0 for block blk_-7200032078273665712 terminating
081111 052132 21021 INFO dfs.DataNode$PacketResponder: Received block blk_-7200032078273665712 of size 67108864 from /10.251.91.159
081111 052132 31 INFO dfs.FSNamesystem: BLOCK* NameSystem.addStoredBlock: blockMap updated: 10.251.91.159:50010 is added to blk_-7200032078273665712 size 67108864
081111 052132 34 INFO dfs.FSNamesystem: BLOCK* NameSystem.addStoredBlock: blockMap updated: 10.251.39.179:50010 is added to blk_-7200032078273665712 size 67108864
081111 052133 20928 INFO dfs.DataNode$PacketResponder: PacketResponder 2 for block blk_-7200032078273665712 terminating
081111 052133 20928 INFO dfs.DataNode$PacketResponder: Received block blk_-7200032078273665712 of size 67108864 from /10.251.91.229
081111 052133 26 INFO dfs.FSNamesystem: BLOCK* NameSystem.addStoredBlock: blockMap updated: 10.251.91.229:50010 is added to blk_-7200032078273665712 size 67108864
081111 052328 29 INFO dfs.FSNamesystem: BLOCK* NameSystem.allocateBlock: /user/root/rand5/_temporary/_task_200811101024_0011_m_001522_0/part-01522. blk_7313202135241517208
081111 052329 20907 INFO dfs.DataNode$DataXceiver: Receiving block blk_7313202135241517208 src: /10.251.67.211:48719 dest: /10.251.67.211:50010
081111 052329 21028 INFO dfs.DataNode$DataXceiver: Receiving block blk_7313202135241517208 src: /10.251.37.240:42680 dest: /10.251.37.240:50010
081111 052329 21097 INFO dfs.DataNode$DataXceiver: Receiving block blk_7313202135241517208 src: /10.251.37.240:35904 dest: /10.251.37.240:50010
081111 052406 20908 INFO dfs.DataNode$PacketResponder: PacketResponder 0 for block blk_7313202135241517208 terminating
081111 052406 20908 INFO dfs.DataNode$PacketResponder: Received block blk_7313202135241517208 of size 67108864 from /10.251.67.211
081111 052406 21029 INFO dfs.DataNode$PacketResponder: PacketResponder 2 for block blk_7313202135241517208 terminating
081111 052406 21029 INFO dfs.DataNode$PacketResponder: Received block blk_7313202135241517208 of size 67108864 from /10.251.37.240
081111 052406 21098 INFO dfs.DataNode$PacketResponder: PacketResponder 1 for block blk_7313202135241517208 terminating
081111 052406 21098 INFO dfs.DataNode$PacketResponder: Received block blk_7313202135241517208 of size 67108864 from /10.251.37.240
081111 052406 29 INFO dfs.FSNamesystem: BLOCK* NameSystem.addStoredBlock: blockMap updated: 10.251.75.143:50010 is added to blk_7313202135241517208 size 67108864
081111 052406 30 INFO dfs.FSNamesystem: BLOCK* NameSystem.addStoredBlock: blockMap updated: 10.251.37.240:50010 is added to blk_7313202135241517208 size 67108864
081111 052406 34 INFO dfs.FSNamesystem: BLOCK* NameSystem.addStoredBlock: blockMap updated: 10.251.67.211:50010 is added to blk_7313202135241517208 size 67108864
081111 052454 20548 INFO dfs.DataNode$DataXceiver: Receiving block blk_5668738431595656834 src: /10.251.203.80:46514 dest: /10.251.203.80:50010
081111 052454 20714 INFO dfs.DataNode$DataXceiver: Receiving block blk_5668738431595656834 src: /10.251.203.80:58835 dest: /10.251.203.80:50010
081111 052454 28 INFO dfs.FSNamesystem: BLOCK* NameSystem.allocateBlock: /user/root/rand5/_temporary/_task_200811101024_0011_m_001374_0/part-01374. blk_5668738431595656834
081111 052457 20548 INFO dfs.DataNode$DataXceiver: writeBlock blk_5668738431595656834 received exception java.io.IOException: Could not read from stream
081111 052522 20733 INFO dfs.DataNode$DataXceiver: Receiving block blk_4865110016582015190 src: /10.251.35.1:58696 dest: /10.251.35.1:50010
081111 052522 20812 INFO dfs.DataNode$DataXceiver: Receiving block blk_4865110016582015190 src: /10.251.35.1:59089 dest: /10.251.35.1:50010
081111 052522 21050 INFO dfs.DataNode$DataXceiver: Receiving block blk_4865110016582015190 src: /10.251.25.237:55717 dest: /10.251.25.237:50010
081111 052522 33 INFO dfs.FSNamesystem: BLOCK* NameSystem.allocateBlock: /user/root/rand5/_temporary/_task_200811101024_0011_m_001546_0/part-01546. blk_4865110016582015190
081111 052614 20734 INFO dfs.DataNode$PacketResponder: PacketResponder 1 for block blk_4865110016582015190 terminating
081111 052614 20734 INFO dfs.DataNode$PacketResponder: Received block blk_4865110016582015190 of size 67108864 from /10.251.35.1
081111 052614 20813 INFO dfs.DataNode$PacketResponder: PacketResponder 2 for block blk_4865110016582015190 terminating
081111 052614 20813 INFO dfs.DataNode$PacketResponder: Received block blk_4865110016582015190 of size 67108864 from /10.251.35.1
081111 052614 21051 INFO dfs.DataNode$PacketResponder: PacketResponder 0 for block blk_4865110016582015190 terminating
081111 052614 21051 INFO dfs.DataNode$PacketResponder: Received block blk_4865110016582015190 of size 67108864 from /10.251.25.237
081111 052614 33 INFO dfs.FSNamesystem: BLOCK* NameSystem.addStoredBlock: blockMap updated: 10.251.194.129:50010 is added to blk_4865110016582015190 size 67108864
081111 052614 34 INFO dfs.FSNamesystem: BLOCK* NameSystem.addStoredBlock: blockMap updated: 10.251.35.1:50010 is added to blk_4865110016582015190 size 67108864
081111 052614 35 INFO dfs.FSNamesystem: BLOCK* NameSystem.addStoredBlock: blockMap updated: 10.251.25.237:50010 is added to blk_4865110016582015190 size 67108864
081111 053247 20951 INFO dfs.DataNode$DataXceiver: Receiving block blk_6824128657493078993 src: /10.250.5.161:58922 dest: /10.250.5.161:50010
081111 053247 21109 INFO dfs.DataNode$DataXceiver: Receiving block blk_6824128657493078993 src: /10.250.5.161:35905 dest: /10.250.5.161:50010
081111 053247 33 INFO dfs.FSNamesystem: BLOCK* NameSystem.allocateBlock: /user/root/rand5/_temporary/_task_200811101024_0011_m_001864_0/part-01864. blk_6824128657493078993
081111 053248 21088 INFO dfs.DataNode$DataXceiver: Receiving block blk_6824128657493078993 src: /10.250.7.146:55633 dest: /10.250.7.146:50010
081111 053350 21090 INFO dfs.DataNode$PacketResponder: PacketResponder 0 for block blk_6824128657493078993 terminating
081111 053350 21090 INFO dfs.DataNode$PacketResponder: Received block blk_6824128657493078993 of size 67108864 from /10.250.7.146
081111 053350 30 INFO dfs.FSNamesystem: BLOCK* NameSystem.addStoredBlock: blockMap updated: 10.250.7.96:50010 is added to blk_6824128657493078993 size 67108864
081111 053355 20952 INFO dfs.DataNode$PacketResponder: PacketResponder 1 for block blk_6824128657493078993 terminating
081111 053355 20952 INFO dfs.DataNode$PacketResponder: Received block blk_6824128657493078993 of size 67108864 from /10.250.5.161
081111 053355 21110 INFO dfs.DataNode$PacketResponder: PacketResponder 2 for block blk_6824128657493078993 terminating
081111 053355 21110 INFO dfs.DataNode$PacketResponder: Received block blk_6824128657493078993 of size 67108864 from /10.250.5.161
081111 053355 27 INFO dfs.FSNamesystem: BLOCK* NameSystem.addStoredBlock: blockMap updated: 10.250.7.146:50010 is added to blk_6824128657493078993 size 67108864
081111 053355 34 INFO dfs.FSNamesystem: BLOCK* NameSystem.addStoredBlock: blockMap updated: 10.250.5.161:50010 is added to blk_6824128657493078993 size 67108864
081111 053731 20779 INFO dfs.DataNode$DataXceiver: Receiving block blk_-3637983751804906731 src: /10.251.90.239:41572 dest: /10.251.90.239:50010
081111 053731 21119 INFO dfs.DataNode$DataXceiver: Receiving block blk_-3637983751804906731 src: /10.251.123.20:37192 dest: /10.251.123.20:50010
081111 053731 21341 INFO dfs.DataNode$DataXceiver: Receiving block blk_-3637983751804906731 src: /10.251.123.20:59401 dest: /10.251.123.20:50010
081111 053731 31 INFO dfs.FSNamesystem: BLOCK* NameSystem.allocateBlock: /user/root/rand5/_temporary/_task_200811101024_0011_m_001782_0/part-01782. blk_-3637983751804906731
081111 053754 21120 INFO dfs.DataNode$PacketResponder: PacketResponder 1 for block blk_-3637983751804906731 terminating
081111 053754 21120 INFO dfs.DataNode$PacketResponder: Received block blk_-3637983751804906731 of size 67108864 from /10.251.123.20
081111 053755 20780 INFO dfs.DataNode$PacketResponder: PacketResponder 0 for block blk_-3637983751804906731 terminating
081111 053755 20780 INFO dfs.DataNode$PacketResponder: Received block blk_-3637983751804906731 of size 67108864 from /10.251.90.239
081111 053755 21342 INFO dfs.DataNode$PacketResponder: PacketResponder 2 for block blk_-3637983751804906731 terminating
081111 053755 21342 INFO dfs.DataNode$PacketResponder: Received block blk_-3637983751804906731 of size 67108864 from /10.251.123.20
081111 053755 26 INFO dfs.FSNamesystem: BLOCK* NameSystem.addStoredBlock: blockMap updated: 10.251.90.239:50010 is added to blk_-3637983751804906731 size 67108864
081111 053755 28 INFO dfs.FSNamesystem: BLOCK* NameSystem.addStoredBlock: blockMap updated: 10.251.107.242:50010 is added to blk_-3637983751804906731 size 67108864
081111 053755 32 INFO dfs.FSNamesystem: BLOCK* NameSystem.addStoredBlock: blockMap updated: 10.251.123.20:50010 is added to blk_-3637983751804906731 size 67108864
081111 055045 21497 INFO dfs.DataNode$DataXceiver: Receiving block blk_-805136217795669083 src: /10.251.194.129:52307 dest: /10.251.194.129:50010
081111 055045 26 INFO dfs.FSNamesystem: BLOCK* NameSystem.allocateBlock: /user/root/randtxt5/_temporary/_task_200811101024_0012_m_000391_0/part-00391. blk_-805136217795669083
081111 055046 21499 INFO dfs.DataNode$DataXceiver: Receiving block blk_-805136217795669083 src: /10.251.194.129:44343 dest: /10.251.194.129:50010
081111 055046 21971 INFO dfs.DataNode$DataXceiver: Receiving block blk_-805136217795669083 src: /10.251.42.84:54325 dest: /10.251.42.84:50010
081111 055127 21498 INFO dfs.DataNode$PacketResponder: PacketResponder 2 for block blk_-805136217795669083 terminating
081111 055127 21498 INFO dfs.DataNode$PacketResponder: Received block blk_-805136217795669083 of size 67108864 from /10.251.194.129
081111 055127 21500 INFO dfs.DataNode$PacketResponder: PacketResponder 1 for block blk_-805136217795669083 terminating
081111 055127 21500 INFO dfs.DataNode$PacketResponder: Received block blk_-805136217795669083 of size 67108864 from /10.251.194.129
081111 055127 21972 INFO dfs.DataNode$PacketResponder: PacketResponder 0 for block blk_-805136217795669083 terminating
081111 055127 21972 INFO dfs.DataNode$PacketResponder: Received block blk_-805136217795669083 of size 67108864 from /10.251.42.84
081111 055127 28 INFO dfs.FSNamesystem: BLOCK* NameSystem.addStoredBlock: blockMap updated: 10.250.11.194:50010 is added to blk_-805136217795669083 size 67108864
081111 055127 29 INFO dfs.FSNamesystem: BLOCK* NameSystem.addStoredBlock: blockMap updated: 10.251.42.84:50010 is added to blk_-805136217795669083 size 67108864
081111 055127 30 INFO dfs.FSNamesystem: BLOCK* NameSystem.addStoredBlock: blockMap updated: 10.251.194.129:50010 is added to blk_-805136217795669083 size 67108864
081111 060652 21708 INFO dfs.DataNode$DataXceiver: Receiving block blk_8360903607423822701 src: /10.251.38.214:35687 dest: /10.251.38.214:50010
081111 060652 32 INFO dfs.FSNamesystem: BLOCK* NameSystem.allocateBlock: /user/root/randtxt5/_temporary/_task_200811101024_0012_m_000468_0/part-00468. blk_8360903607423822701
081111 060653 21667 INFO dfs.DataNode$DataXceiver: Receiving block blk_8360903607423822701 src: /10.251.38.214:56716 dest: /10.251.38.214:50010
081111 060653 21921 INFO dfs.DataNode$DataXceiver: Receiving block blk_8360903607423822701 src: /10.251.125.237:59788 dest: /10.251.125.237:50010
081111 060707 21893 INFO dfs.DataNode$DataXceiver: Receiving block blk_-2341336862707943341 src: /10.251.197.226:34182 dest: /10.251.197.226:50010
081111 060707 21924 INFO dfs.DataNode$DataXceiver: Receiving block blk_-2341336862707943341 src: /10.251.197.226:52123 dest: /10.251.197.226:50010
081111 060707 30 INFO dfs.FSNamesystem: BLOCK* NameSystem.allocateBlock: /user/root/randtxt5/_temporary/_task_200811101024_0012_m_000551_0/part-00551. blk_-2341336862707943341
081111 060708 22066 INFO dfs.DataNode$DataXceiver: Receiving block blk_-2341336862707943341 src: /10.251.26.8:45911 dest: /10.251.26.8:50010
081111 060728 21746 INFO dfs.DataNode$DataXceiver: Receiving block blk_4367982328407767477 src: /10.251.123.20:54412 dest: /10.251.123.20:50010
081111 060728 21895 INFO dfs.DataNode$DataXceiver: Receiving block blk_4367982328407767477 src: /10.251.39.242:49235 dest: /10.251.39.242:50010
081111 060728 21922 INFO dfs.DataNode$DataXceiver: Receiving block blk_4367982328407767477 src: /10.251.39.242:59505 dest: /10.251.39.242:50010
081111 060728 35 INFO dfs.FSNamesystem: BLOCK* NameSystem.allocateBlock: /user/root/randtxt5/_temporary/_task_200811101024_0012_m_000786_0/part-00786. blk_4367982328407767477
081111 060732 21929 INFO dfs.DataNode$PacketResponder: PacketResponder 1 for block blk_-2341336862707943341 terminating
081111 060732 21929 INFO dfs.DataNode$PacketResponder: Received block blk_-2341336862707943341 of size 67108864 from /10.251.197.226
081111 060732 22067 INFO dfs.DataNode$PacketResponder: PacketResponder 0 for block blk_-2341336862707943341 terminating
081111 060732 22067 INFO dfs.DataNode$PacketResponder: Received block blk_-2341336862707943341 of size 67108864 from /10.251.26.8
081111 060732 27 INFO dfs.FSNamesystem: BLOCK* NameSystem.addStoredBlock: blockMap updated: 10.251.43.192:50010 is added to blk_-2341336862707943341 size 67108864
081111 060732 31 INFO dfs.FSNamesystem: BLOCK* NameSystem.addStoredBlock: blockMap updated: 10.251.26.8:50010 is added to blk_-2341336862707943341 size 67108864
081111 060733 21894 INFO dfs.DataNode$PacketResponder: PacketResponder 2 for block blk_-2341336862707943341 terminating
081111 060733 21894 INFO dfs.DataNode$PacketResponder: Received block blk_-2341336862707943341 of size 67108864 from /10.251.197.226
081111 060733 33 INFO dfs.FSNamesystem: BLOCK* NameSystem.addStoredBlock: blockMap updated: 10.251.197.226:50010 is added to blk_-2341336862707943341 size 67108864
081111 060745 21668 INFO dfs.DataNode$PacketResponder: PacketResponder 1 for block blk_8360903607423822701 terminating
081111 060745 21668 INFO dfs.DataNode$PacketResponder: Received block blk_8360903607423822701 of size 67108864 from /10.251.38.214
081111 060745 21709 INFO dfs.DataNode$PacketResponder: PacketResponder 2 for block blk_8360903607423822701 terminating
081111 060745 21709 INFO dfs.DataNode$PacketResponder: Received block blk_8360903607423822701 of size 67108864 from /10.251.38.214
081111 060745 21922 INFO dfs.DataNode$PacketResponder: PacketResponder 0 for block blk_8360903607423822701 terminating
081111 060745 21922 INFO dfs.DataNode$PacketResponder: Received block blk_8360903607423822701 of size 67108864 from /10.251.125.237
081111 060745 32 INFO dfs.FSNamesystem: BLOCK* NameSystem.addStoredBlock: blockMap updated: 10.251.125.237:50010 is added to blk_8360903607423822701 size 67108864
081111 060745 34 INFO dfs.FSNamesystem: BLOCK* NameSystem.addStoredBlock: blockMap updated: 10.250.5.237:50010 is added to blk_8360903607423822701 size 67108864
081111 060745 35 INFO dfs.FSNamesystem: BLOCK* NameSystem.addStoredBlock: blockMap updated: 10.251.38.214:50010 is added to blk_8360903607423822701 size 67108864
081111 060805 21747 INFO dfs.DataNode$PacketResponder: PacketResponder 0 for block blk_4367982328407767477 terminating
081111 060805 21747 INFO dfs.DataNode$PacketResponder: Received block blk_4367982328407767477 of size 67108864 from /10.251.123.20
081111 060805 21896 INFO dfs.DataNode$PacketResponder: PacketResponder 1 for block blk_4367982328407767477 terminating
081111 060805 21896 INFO dfs.DataNode$PacketResponder: Received block blk_4367982328407767477 of size 67108864 from /10.251.39.242
081111 060805 21923 INFO dfs.DataNode$PacketResponder: PacketResponder 2 for block blk_4367982328407767477 terminating
081111 060805 21923 INFO dfs.DataNode$PacketResponder: Received block blk_4367982328407767477 of size 67108864 from /10.251.39.242
081111 060805 28 INFO dfs.FSNamesystem: BLOCK* NameSystem.addStoredBlock: blockMap updated: 10.251.123.20:50010 is added to blk_4367982328407767477 size 67108864
081111 060805 31 INFO dfs.FSNamesystem: BLOCK* NameSystem.addStoredBlock: blockMap updated: 10.250.17.225:50010 is added to blk_4367982328407767477 size 67108864
081111 060806 26 INFO dfs.FSNamesystem: BLOCK* NameSystem.addStoredBlock: blockMap updated: 10.251.39.242:50010 is added to blk_4367982328407767477 size 67108864
081111 061128 21909 INFO dfs.DataNode$DataXceiver: Receiving block blk_3769203595274941713 src: /10.251.215.192:47343 dest: /10.251.215.192:50010
081111 061128 28 INFO dfs.FSNamesystem: BLOCK* NameSystem.allocateBlock: /user/root/randtxt5/_temporary/_task_200811101024_0012_m_000554_0/part-00554. blk_3769203595274941713
081111 061129 21694 INFO dfs.DataNode$DataXceiver: Receiving block blk_3769203595274941713 src: /10.251.215.192:41699 dest: /10.251.215.192:50010
081111 061129 22000 INFO dfs.DataNode$DataXceiver: Receiving block blk_3769203595274941713 src: /10.251.30.179:60731 dest: /10.251.30.179:50010
081111 061203 21695 INFO dfs.DataNode$PacketResponder: PacketResponder 1 for block blk_3769203595274941713 terminating
081111 061203 21695 INFO dfs.DataNode$PacketResponder: Received block blk_3769203595274941713 of size 67108864 from /10.251.215.192
081111 061203 21910 INFO dfs.DataNode$PacketResponder: PacketResponder 2 for block blk_3769203595274941713 terminating
081111 061203 21910 INFO dfs.DataNode$PacketResponder: Received block blk_3769203595274941713 of size 67108864 from /10.251.215.192
081111 061203 22001 INFO dfs.DataNode$PacketResponder: PacketResponder 0 for block blk_3769203595274941713 terminating
081111 061203 22001 INFO dfs.DataNode$PacketResponder: Received block blk_3769203595274941713 of size 67108864 from /10.251.30.179
081111 061203 26 INFO dfs.FSNamesystem: BLOCK* NameSystem.addStoredBlock: blockMap updated: 10.251.30.179:50010 is added to blk_3769203595274941713 size 67108864
081111 061203 28 INFO dfs.FSNamesystem: BLOCK* NameSystem.addStoredBlock: blockMap updated: 10.251.39.242:50010 is added to blk_3769203595274941713 size 67108864
081111 061203 34 INFO dfs.FSNamesystem: BLOCK* NameSystem.addStoredBlock: blockMap updated: 10.251.215.192:50010 is added to blk_3769203595274941713 size 67108864
081111 062002 13 INFO dfs.DataBlockScanner: Verification succeeded for blk_-5730617745256796042
081111 062042 21943 INFO dfs.DataNode$DataXceiver: Receiving block blk_5472104123292087471 src: /10.251.26.131:52054 dest: /10.251.26.131:50010
081111 062042 28 INFO dfs.FSNamesystem: BLOCK* NameSystem.allocateBlock: /user/root/randtxt5/_temporary/_task_200811101024_0012_m_000947_0/part-00947. blk_5472104123292087471
081111 062043 21910 INFO dfs.DataNode$DataXceiver: Receiving block blk_5472104123292087471 src: /10.251.26.131:37692 dest: /10.251.26.131:50010
081111 062043 22166 INFO dfs.DataNode$DataXceiver: Receiving block blk_5472104123292087471 src: /10.251.122.65:37860 dest: /10.251.122.65:50010
081111 062114 21911 INFO dfs.DataNode$PacketResponder: PacketResponder 1 for block blk_5472104123292087471 terminating
081111 062114 21911 INFO dfs.DataNode$PacketResponder: Received block blk_5472104123292087471 of size 67108864 from /10.251.26.131
081111 062114 22167 INFO dfs.DataNode$PacketResponder: PacketResponder 0 for block blk_5472104123292087471 terminating
081111 062114 22167 INFO dfs.DataNode$PacketResponder: Received block blk_5472104123292087471 of size 67108864 from /10.251.122.65
081111 062114 29 INFO dfs.FSNamesystem: BLOCK* NameSystem.addStoredBlock: blockMap updated: 10.251.26.8:50010 is added to blk_5472104123292087471 size 67108864
081111 062115 21946 INFO dfs.DataNode$PacketResponder: PacketResponder 2 for block blk_5472104123292087471 terminating
081111 062115 21946 INFO dfs.DataNode$PacketResponder: Received block blk_5472104123292087471 of size 67108864 from /10.251.26.131
081111 062115 26 INFO dfs.FSNamesystem: BLOCK* NameSystem.addStoredBlock: blockMap updated: 10.251.122.65:50010 is added to blk_5472104123292087471 size 67108864
081111 062115 29 INFO dfs.FSNamesystem: BLOCK* NameSystem.addStoredBlock: blockMap updated: 10.251.26.131:50010 is added to blk_5472104123292087471 size 67108864
081111 063127 30 INFO dfs.FSNamesystem: BLOCK* NameSystem.allocateBlock: /user/root/randtxt5/_temporary/_task_200811101024_0012_m_001306_0/part-01306. blk_-3192289204369826173
081111 063128 22169 INFO dfs.DataNode$DataXceiver: Receiving block blk_-3192289204369826173 src: /10.251.199.150:50313 dest: /10.251.199.150:50010
081111 063128 22379 INFO dfs.DataNode$DataXceiver: Receiving block blk_-3192289204369826173 src: /10.251.199.150:46816 dest: /10.251.199.150:50010
081111 063129 22324 INFO dfs.DataNode$DataXceiver: Receiving block blk_-3192289204369826173 src: /10.251.91.84:39420 dest: /10.251.91.84:50010
081111 063221 22170 INFO dfs.DataNode$PacketResponder: PacketResponder 2 for block blk_-3192289204369826173 terminating
081111 063221 22170 INFO dfs.DataNode$PacketResponder: Received block blk_-3192289204369826173 of size 67108864 from /10.251.199.150
081111 063221 22325 INFO dfs.DataNode$PacketResponder: PacketResponder 0 for block blk_-3192289204369826173 terminating
081111 063221 22325 INFO dfs.DataNode$PacketResponder: Received block blk_-3192289204369826173 of size 67108864 from /10.251.91.84
081111 063221 22383 INFO dfs.DataNode$PacketResponder: PacketResponder 1 for block blk_-3192289204369826173 terminating
081111 063221 22383 INFO dfs.DataNode$PacketResponder: Received block blk_-3192289204369826173 of size 67108864 from /10.251.199.150
081111 063221 27 INFO dfs.FSNamesystem: BLOCK* NameSystem.addStoredBlock: blockMap updated: 10.251.195.33:50010 is added to blk_-3192289204369826173 size 67108864
081111 063221 27 INFO dfs.FSNamesystem: BLOCK* NameSystem.addStoredBlock: blockMap updated: 10.251.199.150:50010 is added to blk_-3192289204369826173 size 67108864
081111 063221 35 INFO dfs.FSNamesystem: BLOCK* NameSystem.addStoredBlock: blockMap updated: 10.251.91.84:50010 is added to blk_-3192289204369826173 size 67108864
081111 063532 32 INFO dfs.FSNamesystem: BLOCK* NameSystem.allocateBlock: /user/root/randtxt5/_temporary/_task_200811101024_0012_m_001732_0/part-01732. blk_4037688261228768578
081111 063533 22233 INFO dfs.DataNode$DataXceiver: Receiving block blk_4037688261228768578 src: /10.250.10.176:43506 dest: /10.250.10.176:50010
081111 063533 22386 INFO dfs.DataNode$DataXceiver: Receiving block blk_4037688261228768578 src: /10.250.10.176:46900 dest: /10.250.10.176:50010
081111 063534 22303 INFO dfs.DataNode$DataXceiver: Receiving block blk_4037688261228768578 src: /10.251.31.5:51016 dest: /10.251.31.5:50010
081111 063545 22464 INFO dfs.DataNode$DataXceiver: Receiving block blk_-9149052117702807153 src: /10.250.5.237:44082 dest: /10.250.5.237:50010
081111 063545 34 INFO dfs.FSNamesystem: BLOCK* NameSystem.allocateBlock: /user/root/randtxt5/_temporary/_task_200811101024_0012_m_001827_0/part-01827. blk_-9149052117702807153
081111 063547 6503 INFO dfs.DataNode$DataXceiver: Receiving block blk_-9149052117702807153 src: /10.250.5.237:54744 dest: /10.250.5.237:50010
081111 063548 22421 INFO dfs.DataNode$DataXceiver: Receiving block blk_-9149052117702807153 src: /10.251.30.85:55710 dest: /10.251.30.85:50010
081111 063636 34 INFO dfs.FSNamesystem: BLOCK* NameSystem.addStoredBlock: blockMap updated: 10.250.7.96:50010 is added to blk_4037688261228768578 size 67108864
081111 063637 22234 INFO dfs.DataNode$PacketResponder: PacketResponder 2 for block blk_4037688261228768578 terminating
081111 063637 22234 INFO dfs.DataNode$PacketResponder: Received block blk_4037688261228768578 of size 67108864 from /10.250.10.176
081111 063637 22305 INFO dfs.DataNode$PacketResponder: PacketResponder 0 for block blk_4037688261228768578 terminating
081111 063637 22305 INFO dfs.DataNode$PacketResponder: Received block blk_4037688261228768578 of size 67108864 from /10.251.31.5
081111 063637 22388 INFO dfs.DataNode$PacketResponder: PacketResponder 1 for block blk_4037688261228768578 terminating
081111 063637 22388 INFO dfs.DataNode$PacketResponder: Received block blk_4037688261228768578 of size 67108864 from /10.250.10.176
081111 063637 22422 INFO dfs.DataNode$PacketResponder: PacketResponder 0 for block blk_-9149052117702807153 terminating
081111 063637 22422 INFO dfs.DataNode$PacketResponder: Received block blk_-9149052117702807153 of size 67108864 from /10.251.30.85
081111 063637 27 INFO dfs.FSNamesystem: BLOCK* NameSystem.addStoredBlock: blockMap updated: 10.251.195.33:50010 is added to blk_-9149052117702807153 size 67108864
081111 063637 28 INFO dfs.FSNamesystem: BLOCK* NameSystem.addStoredBlock: blockMap updated: 10.251.31.5:50010 is added to blk_4037688261228768578 size 67108864
081111 063637 29 INFO dfs.FSNamesystem: BLOCK* NameSystem.addStoredBlock: blockMap updated: 10.250.10.176:50010 is added to blk_4037688261228768578 size 67108864
081111 063639 22465 INFO dfs.DataNode$PacketResponder: PacketResponder 2 for block blk_-9149052117702807153 terminating
081111 063639 22465 INFO dfs.DataNode$PacketResponder: Received block blk_-9149052117702807153 of size 67108864 from /10.250.5.237
081111 063639 34 INFO dfs.FSNamesystem: BLOCK* NameSystem.addStoredBlock: blockMap updated: 10.251.30.85:50010 is added to blk_-9149052117702807153 size 67108864
081111 063639 35 INFO dfs.FSNamesystem: BLOCK* NameSystem.addStoredBlock: blockMap updated: 10.250.5.237:50010 is added to blk_-9149052117702807153 size 67108864
081111 063639 6505 INFO dfs.DataNode$PacketResponder: PacketResponder 1 for block blk_-9149052117702807153 terminating
081111 063639 6505 INFO dfs.DataNode$PacketResponder: Received block blk_-9149052117702807153 of size 67108864 from /10.250.5.237
081111 063807 22541 INFO dfs.DataNode$DataXceiver: Receiving block blk_6822350664328274864 src: /10.251.110.196:37640 dest: /10.251.110.196:50010
081111 063807 22546 INFO dfs.DataNode$DataXceiver: Receiving block blk_6822350664328274864 src: /10.251.110.196:57060 dest: /10.251.110.196:50010
081111 063807 27 INFO dfs.FSNamesystem: BLOCK* NameSystem.allocateBlock: /user/root/randtxt5/_temporary/_task_200811101024_0012_m_001961_0/part-01961. blk_6822350664328274864
081111 063809 22377 INFO dfs.DataNode$DataXceiver: Receiving block blk_6822350664328274864 src: /10.251.199.86:43676 dest: /10.251.199.86:50010
081111 063901 22378 INFO dfs.DataNode$PacketResponder: PacketResponder 0 for block blk_6822350664328274864 terminating
081111 063901 22378 INFO dfs.DataNode$PacketResponder: Received block blk_6822350664328274864 of size 67108864 from /10.251.199.86
081111 063901 30 INFO dfs.FSNamesystem: BLOCK* NameSystem.addStoredBlock: blockMap updated: 10.251.31.85:50010 is added to blk_6822350664328274864 size 67108864
081111 063902 22543 INFO dfs.DataNode$PacketResponder: PacketResponder 2 for block blk_6822350664328274864 terminating
081111 063902 22543 INFO dfs.DataNode$PacketResponder: Received block blk_6822350664328274864 of size 67108864 from /10.251.110.196
081111 063902 22549 INFO dfs.DataNode$PacketResponder: PacketResponder 1 for block blk_6822350664328274864 terminating
081111 063902 22549 INFO dfs.DataNode$PacketResponder: Received block blk_6822350664328274864 of size 67108864 from /10.251.110.196
081111 063902 27 INFO dfs.FSNamesystem: BLOCK* NameSystem.addStoredBlock: blockMap updated: 10.251.110.196:50010 is added to blk_6822350664328274864 size 67108864
081111 063902 32 INFO dfs.FSNamesystem: BLOCK* NameSystem.addStoredBlock: blockMap updated: 10.251.199.86:50010 is added to blk_6822350664328274864 size 67108864
081111 065208 26 INFO dfs.FSNamesystem: BLOCK* NameSystem.delete: blk_-805136217795669083 is added to invalidSet of 10.250.11.194:50010
081111 065208 26 INFO dfs.FSNamesystem: BLOCK* NameSystem.delete: blk_-805136217795669083 is added to invalidSet of 10.251.194.129:50010
081111 065208 26 INFO dfs.FSNamesystem: BLOCK* NameSystem.delete: blk_-805136217795669083 is added to invalidSet of 10.251.42.84:50010
081111 065209 26 INFO dfs.FSNamesystem: BLOCK* NameSystem.delete: blk_8360903607423822701 is added to invalidSet of 10.250.5.237:50010
081111 065209 26 INFO dfs.FSNamesystem: BLOCK* NameSystem.delete: blk_8360903607423822701 is added to invalidSet of 10.251.125.237:50010
081111 065209 26 INFO dfs.FSNamesystem: BLOCK* NameSystem.delete: blk_8360903607423822701 is added to invalidSet of 10.251.38.214:50010
081111 065210 26 INFO dfs.FSNamesystem: BLOCK* NameSystem.delete: blk_-2341336862707943341 is added to invalidSet of 10.251.197.226:50010
081111 065210 26 INFO dfs.FSNamesystem: BLOCK* NameSystem.delete: blk_-2341336862707943341 is added to invalidSet of 10.251.26.8:50010
081111 065210 26 INFO dfs.FSNamesystem: BLOCK* NameSystem.delete: blk_-2341336862707943341 is added to invalidSet of 10.251.43.192:50010
081111 065210 26 INFO dfs.FSNamesystem: BLOCK* NameSystem.delete: blk_3769203595274941713 is added to invalidSet of 10.251.215.192:50010
081111 065210 26 INFO dfs.FSNamesystem: BLOCK* NameSystem.delete: blk_3769203595274941713 is added to invalidSet of 10.251.30.179:50010
081111 065210 26 INFO dfs.FSNamesystem: BLOCK* NameSystem.delete: blk_3769203595274941713 is added to invalidSet of 10.251.39.242:50010
081111 065213 26 INFO dfs.FSNamesystem: BLOCK* NameSystem.delete: blk_4367982328407767477 is added to invalidSet of 10.250.17.225:50010
081111 065213 26 INFO dfs.FSNamesystem: BLOCK* NameSystem.delete: blk_4367982328407767477 is added to invalidSet of 10.251.123.20:50010
081111 065213 26 INFO dfs.FSNamesystem: BLOCK* NameSystem.delete: blk_4367982328407767477 is added to invalidSet of 10.251.39.242:50010
081111 065215 26 INFO dfs.FSNamesystem: BLOCK* NameSystem.delete: blk_5472104123292087471 is added to invalidSet of 10.251.122.65:50010
081111 065215 26 INFO dfs.FSNamesystem: BLOCK* NameSystem.delete: blk_5472104123292087471 is added to invalidSet of 10.251.26.131:50010
081111 065215 26 INFO dfs.FSNamesystem: BLOCK* NameSystem.delete: blk_5472104123292087471 is added to invalidSet of 10.251.26.8:50010
081111 065219 26 INFO dfs.FSNamesystem: BLOCK* NameSystem.delete: blk_-3192289204369826173 is added to invalidSet of 10.251.195.33:50010
081111 065219 26 INFO dfs.FSNamesystem: BLOCK* NameSystem.delete: blk_-3192289204369826173 is added to invalidSet of 10.251.199.150:50010
081111 065219 26 INFO dfs.FSNamesystem: BLOCK* NameSystem.delete: blk_-3192289204369826173 is added to invalidSet of 10.251.91.84:50010
081111 065224 26 INFO dfs.FSNamesystem: BLOCK* NameSystem.delete: blk_4037688261228768578 is added to invalidSet of 10.250.10.176:50010
081111 065224 26 INFO dfs.FSNamesystem: BLOCK* NameSystem.delete: blk_4037688261228768578 is added to invalidSet of 10.250.7.96:50010
081111 065224 26 INFO dfs.FSNamesystem: BLOCK* NameSystem.delete: blk_4037688261228768578 is added to invalidSet of 10.251.31.5:50010
081111 065225 26 INFO dfs.FSNamesystem: BLOCK* NameSystem.delete: blk_-9149052117702807153 is added to invalidSet of 10.250.5.237:50010
081111 065225 26 INFO dfs.FSNamesystem: BLOCK* NameSystem.delete: blk_-9149052117702807153 is added to invalidSet of 10.251.195.33:50010
081111 065225 26 INFO dfs.FSNamesystem: BLOCK* NameSystem.delete: blk_-9149052117702807153 is added to invalidSet of 10.251.30.85:50010
081111 065226 26 INFO dfs.FSNamesystem: BLOCK* NameSystem.delete: blk_6822350664328274864 is added to invalidSet of 10.251.110.196:50010
081111 065226 26 INFO dfs.FSNamesystem: BLOCK* NameSystem.delete: blk_6822350664328274864 is added to invalidSet of 10.251.199.86:50010
081111 065226 26 INFO dfs.FSNamesystem: BLOCK* NameSystem.delete: blk_6822350664328274864 is added to invalidSet of 10.251.31.85:50010
081111 065304 19 INFO dfs.FSDataset: Deleting block blk_-9149052117702807153 file /mnt/hadoop/dfs/data/current/subdir51/blk_-9149052117702807153
081111 065312 19 INFO dfs.FSDataset: Deleting block blk_-9149052117702807153 file /mnt/hadoop/dfs/data/current/subdir28/blk_-9149052117702807153
081111 065314 19 INFO dfs.FSDataset: Deleting block blk_-9149052117702807153 file /mnt/hadoop/dfs/data/current/subdir36/blk_-9149052117702807153
081111 065404 19 INFO dfs.FSDataset: Deleting block blk_-2341336862707943341 file /mnt/hadoop/dfs/data/current/subdir31/blk_-2341336862707943341
081111 065416 19 INFO dfs.FSDataset: Deleting block blk_-805136217795669083 file /mnt/hadoop/dfs/data/current/subdir28/blk_-805136217795669083
081111 065430 19 INFO dfs.FSDataset: Deleting block blk_-3192289204369826173 file /mnt/hadoop/dfs/data/current/subdir5/blk_-3192289204369826173
081111 065437 19 INFO dfs.FSDataset: Deleting block blk_-2341336862707943341 file /mnt/hadoop/dfs/data/current/subdir62/blk_-2341336862707943341
081111 065439 19 INFO dfs.FSDataset: Deleting block blk_-3192289204369826173 file /mnt/hadoop/dfs/data/current/subdir36/blk_-3192289204369826173
081111 065444 19 INFO dfs.FSDataset: Deleting block blk_4037688261228768578 file /mnt/hadoop/dfs/data/current/subdir24/blk_4037688261228768578
081111 065448 19 INFO dfs.FSDataset: Deleting block blk_3769203595274941713 file /mnt/hadoop/dfs/data/current/subdir54/blk_3769203595274941713
081111 065451 19 INFO dfs.FSDataset: Deleting block blk_3769203595274941713 file /mnt/hadoop/dfs/data/current/subdir12/blk_3769203595274941713
081111 065451 19 INFO dfs.FSDataset: Deleting block blk_6822350664328274864 file /mnt/hadoop/dfs/data/current/subdir16/blk_6822350664328274864
081111 065452 19 INFO dfs.FSDataset: Deleting block blk_-3192289204369826173 file /mnt/hadoop/dfs/data/current/subdir41/blk_-3192289204369826173
081111 065452 19 INFO dfs.FSDataset: Deleting block blk_3769203595274941713 file /mnt/hadoop/dfs/data/current/subdir32/blk_3769203595274941713
081111 065454 19 INFO dfs.FSDataset: Deleting block blk_4367982328407767477 file /mnt/hadoop/dfs/data/current/subdir32/blk_4367982328407767477
081111 065455 19 INFO dfs.FSDataset: Deleting block blk_-2341336862707943341 file /mnt/hadoop/dfs/data/current/subdir41/blk_-2341336862707943341
081111 065457 19 INFO dfs.FSDataset: Deleting block blk_-805136217795669083 file /mnt/hadoop/dfs/data/current/subdir32/blk_-805136217795669083
081111 065458 19 INFO dfs.FSDataset: Deleting block blk_-805136217795669083 file /mnt/hadoop/dfs/data/current/subdir40/blk_-805136217795669083
081111 065504 19 INFO dfs.FSDataset: Deleting block blk_6822350664328274864 file /mnt/hadoop/dfs/data/current/subdir23/blk_6822350664328274864
081111 065504 19 INFO dfs.FSDataset: Deleting block blk_8360903607423822701 file /mnt/hadoop/dfs/data/current/subdir25/blk_8360903607423822701
081111 065507 19 INFO dfs.FSDataset: Deleting block blk_4367982328407767477 file /mnt/hadoop/dfs/data/current/subdir10/blk_4367982328407767477
081111 065510 19 INFO dfs.FSDataset: Deleting block blk_4367982328407767477 file /mnt/hadoop/dfs/data/current/subdir28/blk_4367982328407767477
081111 065519 19 INFO dfs.FSDataset: Deleting block blk_5472104123292087471 file /mnt/hadoop/dfs/data/current/subdir43/blk_5472104123292087471
081111 065521 22000 INFO dfs.DataNode$DataXceiver: Receiving block blk_3403561360758684181 src: /10.251.106.50:47284 dest: /10.251.106.50:50010
081111 065521 22549 INFO dfs.DataNode$DataXceiver: Receiving block blk_3403561360758684181 src: /10.251.106.50:57686 dest: /10.251.106.50:50010
081111 065521 22559 INFO dfs.DataNode$DataXceiver: Receiving block blk_3403561360758684181 src: /10.251.91.32:40362 dest: /10.251.91.32:50010
081111 065521 27 INFO dfs.FSNamesystem: BLOCK* NameSystem.allocateBlock: /user/root/rand6/_temporary/_task_200811101024_0013_m_000276_0/part-00276. blk_3403561360758684181
081111 065527 19 INFO dfs.FSDataset: Deleting block blk_4037688261228768578 file /mnt/hadoop/dfs/data/current/subdir13/blk_4037688261228768578
081111 065537 19 INFO dfs.FSDataset: Deleting block blk_8360903607423822701 file /mnt/hadoop/dfs/data/current/subdir59/blk_8360903607423822701
081111 065542 22001 INFO dfs.DataNode$PacketResponder: PacketResponder 1 for block blk_3403561360758684181 terminating
081111 065542 22001 INFO dfs.DataNode$PacketResponder: Received block blk_3403561360758684181 of size 67108864 from /10.251.106.50
081111 065542 22560 INFO dfs.DataNode$PacketResponder: PacketResponder 0 for block blk_3403561360758684181 terminating
081111 065542 22560 INFO dfs.DataNode$PacketResponder: Received block blk_3403561360758684181 of size 67108864 from /10.251.91.32
081111 065542 34 INFO dfs.FSNamesystem: BLOCK* NameSystem.addStoredBlock: blockMap updated: 10.251.125.174:50010 is added to blk_3403561360758684181 size 67108864
081111 065543 22550 INFO dfs.DataNode$PacketResponder: PacketResponder 2 for block blk_3403561360758684181 terminating
081111 065543 22550 INFO dfs.DataNode$PacketResponder: Received block blk_3403561360758684181 of size 67108864 from /10.251.106.50
081111 065543 32 INFO dfs.FSNamesystem: BLOCK* NameSystem.addStoredBlock: blockMap updated: 10.251.106.50:50010 is added to blk_3403561360758684181 size 67108864
081111 065544 19 INFO dfs.FSDataset: Deleting block blk_8360903607423822701 file /mnt/hadoop/dfs/data/current/subdir34/blk_8360903607423822701
081111 065549 19 INFO dfs.FSDataset: Deleting block blk_4037688261228768578 file /mnt/hadoop/dfs/data/current/subdir44/blk_4037688261228768578
081111 065613 19 INFO dfs.FSDataset: Deleting block blk_5472104123292087471 file /mnt/hadoop/dfs/data/current/subdir7/blk_5472104123292087471
081111 065618 19 INFO dfs.FSDataset: Deleting block blk_5472104123292087471 file /mnt/hadoop/dfs/data/current/subdir35/blk_5472104123292087471
081111 065718 19 INFO dfs.FSDataset: Deleting block blk_6822350664328274864 file /mnt/hadoop/dfs/data/current/subdir7/blk_6822350664328274864
081111 065741 22575 INFO dfs.DataNode$DataXceiver: Receiving block blk_6785559897150947866 src: /10.251.29.239:43103 dest: /10.251.29.239:50010
081111 065741 30 INFO dfs.FSNamesystem: BLOCK* NameSystem.allocateBlock: /user/root/rand6/_temporary/_task_200811101024_0013_m_000058_0/part-00058. blk_6785559897150947866
081111 065742 22343 INFO dfs.DataNode$DataXceiver: Receiving block blk_6785559897150947866 src: /10.250.11.100:44992 dest: /10.250.11.100:50010
081111 065742 22725 INFO dfs.DataNode$DataXceiver: Receiving block blk_6785559897150947866 src: /10.251.29.239:52610 dest: /10.251.29.239:50010
081111 065828 22345 INFO dfs.DataNode$PacketResponder: PacketResponder 0 for block blk_6785559897150947866 terminating
081111 065828 22345 INFO dfs.DataNode$PacketResponder: Received block blk_6785559897150947866 of size 67108864 from /10.250.11.100
081111 065828 22577 INFO dfs.DataNode$PacketResponder: PacketResponder 2 for block blk_6785559897150947866 terminating
081111 065828 22577 INFO dfs.DataNode$PacketResponder: Received block blk_6785559897150947866 of size 67108864 from /10.251.29.239
081111 065828 22726 INFO dfs.DataNode$PacketResponder: PacketResponder 1 for block blk_6785559897150947866 terminating
081111 065828 22726 INFO dfs.DataNode$PacketResponder: Received block blk_6785559897150947866 of size 67108864 from /10.251.29.239
081111 065828 26 INFO dfs.FSNamesystem: BLOCK* NameSystem.addStoredBlock: blockMap updated: 10.250.14.224:50010 is added to blk_6785559897150947866 size 67108864
081111 065828 31 INFO dfs.FSNamesystem: BLOCK* NameSystem.addStoredBlock: blockMap updated: 10.250.11.100:50010 is added to blk_6785559897150947866 size 67108864
081111 065828 33 INFO dfs.FSNamesystem: BLOCK* NameSystem.addStoredBlock: blockMap updated: 10.251.29.239:50010 is added to blk_6785559897150947866 size 67108864
081111 065839 26 INFO dfs.FSNamesystem: BLOCK* NameSystem.addStoredBlock: blockMap updated: 10.251.91.32:50010 is added to blk_3403561360758684181 size 67108864
081111 070304 22819 INFO dfs.DataNode$DataXceiver: Receiving block blk_-8949161137006151771 src: /10.251.66.102:56706 dest: /10.251.66.102:50010
081111 070304 23005 INFO dfs.DataNode$DataXceiver: Receiving block blk_-8949161137006151771 src: /10.251.66.102:42108 dest: /10.251.66.102:50010
081111 070304 30 INFO dfs.FSNamesystem: BLOCK* NameSystem.allocateBlock: /user/root/rand6/_temporary/_task_200811101024_0013_m_000060_0/part-00060. blk_-8949161137006151771
081111 070305 22905 INFO dfs.DataNode$DataXceiver: Receiving block blk_-8949161137006151771 src: /10.251.66.3:49028 dest: /10.251.66.3:50010
081111 070354 22822 INFO dfs.DataNode$PacketResponder: PacketResponder 2 for block blk_-8949161137006151771 terminating
081111 070354 22822 INFO dfs.DataNode$PacketResponder: Received block blk_-8949161137006151771 of size 67108864 from /10.251.66.102
081111 070354 22906 INFO dfs.DataNode$PacketResponder: PacketResponder 0 for block blk_-8949161137006151771 terminating
081111 070354 22906 INFO dfs.DataNode$PacketResponder: Received block blk_-8949161137006151771 of size 67108864 from /10.251.66.3
081111 070354 23006 INFO dfs.DataNode$PacketResponder: PacketResponder 1 for block blk_-8949161137006151771 terminating
081111 070354 23006 INFO dfs.DataNode$PacketResponder: Received block blk_-8949161137006151771 of size 67108864 from /10.251.66.102
081111 070354 26 INFO dfs.FSNamesystem: BLOCK* NameSystem.addStoredBlock: blockMap updated: 10.251.39.242:50010 is added to blk_-8949161137006151771 size 67108864
081111 070354 28 INFO dfs.FSNamesystem: BLOCK* NameSystem.addStoredBlock: blockMap updated: 10.251.66.3:50010 is added to blk_-8949161137006151771 size 67108864
081111 070354 33 INFO dfs.FSNamesystem: BLOCK* NameSystem.addStoredBlock: blockMap updated: 10.251.66.102:50010 is added to blk_-8949161137006151771 size 67108864
081111 070826 22924 INFO dfs.DataNode$DataXceiver: Receiving block blk_451482405241067640 src: /10.251.70.211:33409 dest: /10.251.70.211:50010
081111 070826 32 INFO dfs.FSNamesystem: BLOCK* NameSystem.allocateBlock: /user/root/rand6/_temporary/_task_200811101024_0013_m_000682_0/part-00682. blk_451482405241067640
081111 070827 23063 INFO dfs.DataNode$DataXceiver: Receiving block blk_451482405241067640 src: /10.251.70.211:58916 dest: /10.251.70.211:50010
081111 070830 22513 INFO dfs.DataNode$DataXceiver: Receiving block blk_451482405241067640 src: /10.251.214.112:37772 dest: /10.251.214.112:50010
081111 070909 22514 INFO dfs.DataNode$PacketResponder: PacketResponder 0 for block blk_451482405241067640 terminating
081111 070909 22514 INFO dfs.DataNode$PacketResponder: Received block blk_451482405241067640 of size 67108864 from /10.251.214.112
081111 070909 22925 INFO dfs.DataNode$PacketResponder: PacketResponder 2 for block blk_451482405241067640 terminating
081111 070909 22925 INFO dfs.DataNode$PacketResponder: Received block blk_451482405241067640 of size 67108864 from /10.251.70.211
081111 070909 23064 INFO dfs.DataNode$PacketResponder: PacketResponder 1 for block blk_451482405241067640 terminating
081111 070909 23064 INFO dfs.DataNode$PacketResponder: Received block blk_451482405241067640 of size 67108864 from /10.251.70.211
081111 070909 29 INFO dfs.FSNamesystem: BLOCK* NameSystem.addStoredBlock: blockMap updated: 10.251.123.195:50010 is added to blk_451482405241067640 size 67108864
081111 070909 35 INFO dfs.FSNamesystem: BLOCK* NameSystem.addStoredBlock: blockMap updated: 10.251.214.112:50010 is added to blk_451482405241067640 size 67108864
081111 070909 35 INFO dfs.FSNamesystem: BLOCK* NameSystem.addStoredBlock: blockMap updated: 10.251.70.211:50010 is added to blk_451482405241067640 size 67108864
081111 071537 28 INFO dfs.FSNamesystem: BLOCK* NameSystem.allocateBlock: /user/root/rand6/_temporary/_task_200811101024_0013_m_000620_0/part-00620. blk_-8291517804439170360
081111 071538 22490 INFO dfs.DataNode$DataXceiver: Receiving block blk_-8291517804439170360 src: /10.251.195.33:43124 dest: /10.251.195.33:50010
081111 071538 22746 INFO dfs.DataNode$DataXceiver: Receiving block blk_-8291517804439170360 src: /10.251.126.255:36236 dest: /10.251.126.255:50010
081111 071538 23144 INFO dfs.DataNode$DataXceiver: Receiving block blk_-8291517804439170360 src: /10.251.195.33:50408 dest: /10.251.195.33:50010
081111 071616 22491 INFO dfs.DataNode$PacketResponder: PacketResponder 1 for block blk_-8291517804439170360 terminating
081111 071616 22491 INFO dfs.DataNode$PacketResponder: Received block blk_-8291517804439170360 of size 67108864 from /10.251.195.33
081111 071616 22747 INFO dfs.DataNode$PacketResponder: PacketResponder 0 for block blk_-8291517804439170360 terminating
081111 071616 22747 INFO dfs.DataNode$PacketResponder: Received block blk_-8291517804439170360 of size 67108864 from /10.251.126.255
081111 071616 23145 INFO dfs.DataNode$PacketResponder: PacketResponder 2 for block blk_-8291517804439170360 terminating
081111 071616 23145 INFO dfs.DataNode$PacketResponder: Received block blk_-8291517804439170360 of size 67108864 from /10.251.195.33
081111 071616 26 INFO dfs.FSNamesystem: BLOCK* NameSystem.addStoredBlock: blockMap updated: 10.251.39.209:50010 is added to blk_-8291517804439170360 size 67108864
081111 071616 31 INFO dfs.FSNamesystem: BLOCK* NameSystem.addStoredBlock: blockMap updated: 10.251.126.255:50010 is added to blk_-8291517804439170360 size 67108864
081111 071616 33 INFO dfs.FSNamesystem: BLOCK* NameSystem.addStoredBlock: blockMap updated: 10.251.195.33:50010 is added to blk_-8291517804439170360 size 67108864
081111 071702 27 INFO dfs.FSNamesystem: BLOCK* NameSystem.allocateBlock: /user/root/rand6/_temporary/_task_200811101024_0013_m_000783_0/part-00783. blk_-8074033429620018493
081111 071703 22953 INFO dfs.DataNode$DataXceiver: Receiving block blk_-8074033429620018493 src: /10.251.125.174:48820 dest: /10.251.125.174:50010
081111 071703 23065 INFO dfs.DataNode$DataXceiver: Receiving block blk_-8074033429620018493 src: /10.251.31.85:55480 dest: /10.251.31.85:50010
081111 071703 23095 INFO dfs.DataNode$DataXceiver: Receiving block blk_-8074033429620018493 src: /10.251.125.174:60393 dest: /10.251.125.174:50010
081111 071745 22955 INFO dfs.DataNode$PacketResponder: PacketResponder 2 for block blk_-8074033429620018493 terminating
081111 071745 22955 INFO dfs.DataNode$PacketResponder: Received block blk_-8074033429620018493 of size 67108864 from /10.251.125.174
081111 071745 23066 INFO dfs.DataNode$PacketResponder: PacketResponder 0 for block blk_-8074033429620018493 terminating
081111 071745 23066 INFO dfs.DataNode$PacketResponder: Received block blk_-8074033429620018493 of size 67108864 from /10.251.31.85
081111 071745 23096 INFO dfs.DataNode$PacketResponder: PacketResponder 1 for block blk_-8074033429620018493 terminating
081111 071745 23096 INFO dfs.DataNode$PacketResponder: Received block blk_-8074033429620018493 of size 67108864 from /10.251.125.174
081111 071745 31 INFO dfs.FSNamesystem: BLOCK* NameSystem.addStoredBlock: blockMap updated: 10.251.215.16:50010 is added to blk_-8074033429620018493 size 67108864
081111 071745 35 INFO dfs.FSNamesystem: BLOCK* NameSystem.addStoredBlock: blockMap updated: 10.251.125.174:50010 is added to blk_-8074033429620018493 size 67108864
081111 071746 28 INFO dfs.FSNamesystem: BLOCK* NameSystem.addStoredBlock: blockMap updated: 10.251.31.85:50010 is added to blk_-8074033429620018493 size 67108864
081111 071806 17916 INFO dfs.DataNode$DataXceiver: Receiving block blk_-2742852126536126969 src: /10.251.43.147:33662 dest: /10.251.43.147:50010
081111 071806 21804 INFO dfs.DataNode$DataXceiver: Receiving block blk_-2742852126536126969 src: /10.251.39.160:40786 dest: /10.251.39.160:50010
081111 071806 23099 INFO dfs.DataNode$DataXceiver: Receiving block blk_-2742852126536126969 src: /10.251.43.147:58829 dest: /10.251.43.147:50010
081111 071806 33 INFO dfs.FSNamesystem: BLOCK* NameSystem.allocateBlock: /user/root/rand6/_temporary/_task_200811101024_0013_m_000758_0/part-00758. blk_-2742852126536126969
081111 071852 17917 INFO dfs.DataNode$PacketResponder: PacketResponder 1 for block blk_-2742852126536126969 terminating
081111 071852 17917 INFO dfs.DataNode$PacketResponder: Received block blk_-2742852126536126969 of size 67108864 from /10.251.43.147
081111 071852 21805 INFO dfs.DataNode$PacketResponder: PacketResponder 0 for block blk_-2742852126536126969 terminating
081111 071852 21805 INFO dfs.DataNode$PacketResponder: Received block blk_-2742852126536126969 of size 67108864 from /10.251.39.160
081111 071852 23100 INFO dfs.DataNode$PacketResponder: PacketResponder 2 for block blk_-2742852126536126969 terminating
081111 071852 23100 INFO dfs.DataNode$PacketResponder: Received block blk_-2742852126536126969 of size 67108864 from /10.251.43.147
081111 071852 26 INFO dfs.FSNamesystem: BLOCK* NameSystem.addStoredBlock: blockMap updated: 10.251.106.10:50010 is added to blk_-2742852126536126969 size 67108864
081111 071852 33 INFO dfs.FSNamesystem: BLOCK* NameSystem.addStoredBlock: blockMap updated: 10.251.39.160:50010 is added to blk_-2742852126536126969 size 67108864
081111 071852 33 INFO dfs.FSNamesystem: BLOCK* NameSystem.addStoredBlock: blockMap updated: 10.251.43.147:50010 is added to blk_-2742852126536126969 size 67108864
081111 072414 23113 INFO dfs.DataNode$DataXceiver: Receiving block blk_8729944638084105345 src: /10.251.70.211:44239 dest: /10.251.70.211:50010
081111 072414 23244 INFO dfs.DataNode$DataXceiver: Receiving block blk_8729944638084105345 src: /10.251.70.211:45583 dest: /10.251.70.211:50010
081111 072414 29 INFO dfs.FSNamesystem: BLOCK* NameSystem.allocateBlock: /user/root/rand6/_temporary/_task_200811101024_0013_m_001202_0/part-01202. blk_8729944638084105345
081111 072415 23083 INFO dfs.DataNode$DataXceiver: Receiving block blk_8729944638084105345 src: /10.251.29.239:56676 dest: /10.251.29.239:50010
081111 072452 23025 INFO dfs.DataNode$DataXceiver: Receiving block blk_-6548530666486936833 src: /10.251.197.226:51894 dest: /10.251.197.226:50010
081111 072452 23377 INFO dfs.DataNode$DataXceiver: Receiving block blk_-6548530666486936833 src: /10.251.110.68:43778 dest: /10.251.110.68:50010
081111 072452 23391 INFO dfs.DataNode$DataXceiver: Receiving block blk_-6548530666486936833 src: /10.251.110.68:51558 dest: /10.251.110.68:50010
081111 072452 33 INFO dfs.FSNamesystem: BLOCK* NameSystem.allocateBlock: /user/root/rand6/_temporary/_task_200811101024_0013_m_001103_0/part-01103. blk_-6548530666486936833
081111 072509 23084 INFO dfs.DataNode$PacketResponder: PacketResponder 0 for block blk_8729944638084105345 terminating
081111 072509 23084 INFO dfs.DataNode$PacketResponder: Received block blk_8729944638084105345 of size 67108864 from /10.251.29.239
081111 072509 23114 INFO dfs.DataNode$PacketResponder: PacketResponder 1 for block blk_8729944638084105345 terminating
081111 072509 23114 INFO dfs.DataNode$PacketResponder: Received block blk_8729944638084105345 of size 67108864 from /10.251.70.211
081111 072509 23245 INFO dfs.DataNode$PacketResponder: PacketResponder 2 for block blk_8729944638084105345 terminating
081111 072509 23245 INFO dfs.DataNode$PacketResponder: Received block blk_8729944638084105345 of size 67108864 from /10.251.70.211
081111 072509 28 INFO dfs.FSNamesystem: BLOCK* NameSystem.addStoredBlock: blockMap updated: 10.251.30.179:50010 is added to blk_8729944638084105345 size 67108864
081111 072509 32 INFO dfs.FSNamesystem: BLOCK* NameSystem.addStoredBlock: blockMap updated: 10.251.70.211:50010 is added to blk_8729944638084105345 size 67108864
081111 072509 33 INFO dfs.FSNamesystem: BLOCK* NameSystem.addStoredBlock: blockMap updated: 10.251.29.239:50010 is added to blk_8729944638084105345 size 67108864
081111 072516 23026 INFO dfs.DataNode$PacketResponder: PacketResponder 0 for block blk_-6548530666486936833 terminating
081111 072516 23026 INFO dfs.DataNode$PacketResponder: Received block blk_-6548530666486936833 of size 67108864 from /10.251.197.226
081111 072516 23378 INFO dfs.DataNode$PacketResponder: PacketResponder 2 for block blk_-6548530666486936833 terminating
081111 072516 23378 INFO dfs.DataNode$PacketResponder: Received block blk_-6548530666486936833 of size 67108864 from /10.251.110.68
081111 072516 23392 INFO dfs.DataNode$PacketResponder: PacketResponder 1 for block blk_-6548530666486936833 terminating
081111 072516 23392 INFO dfs.DataNode$PacketResponder: Received block blk_-6548530666486936833 of size 67108864 from /10.251.110.68
081111 072516 28 INFO dfs.FSNamesystem: BLOCK* NameSystem.addStoredBlock: blockMap updated: 10.251.110.68:50010 is added to blk_-6548530666486936833 size 67108864
081111 072516 29 INFO dfs.FSNamesystem: BLOCK* NameSystem.addStoredBlock: blockMap updated: 10.251.197.226:50010 is added to blk_-6548530666486936833 size 67108864
081111 072516 35 INFO dfs.FSNamesystem: BLOCK* NameSystem.addStoredBlock: blockMap updated: 10.251.125.193:50010 is added to blk_-6548530666486936833 size 67108864
081111 072711 23183 INFO dfs.DataNode$DataXceiver: Receiving block blk_8605523115374691853 src: /10.251.125.237:49167 dest: /10.251.125.237:50010
081111 072711 30 INFO dfs.FSNamesystem: BLOCK* NameSystem.allocateBlock: /user/root/rand6/_temporary/_task_200811101024_0013_m_001230_0/part-01230. blk_8605523115374691853
081111 072712 23223 INFO dfs.DataNode$DataXceiver: Receiving block blk_8605523115374691853 src: /10.251.125.237:51991 dest: /10.251.125.237:50010
081111 072712 23266 INFO dfs.DataNode$DataXceiver: Receiving block blk_8605523115374691853 src: /10.251.109.209:54137 dest: /10.251.109.209:50010
081111 072750 23184 INFO dfs.DataNode$PacketResponder: PacketResponder 2 for block blk_8605523115374691853 terminating
081111 072750 23184 INFO dfs.DataNode$PacketResponder: Received block blk_8605523115374691853 of size 67108864 from /10.251.125.237
081111 072750 23224 INFO dfs.DataNode$PacketResponder: PacketResponder 1 for block blk_8605523115374691853 terminating
081111 072750 23224 INFO dfs.DataNode$PacketResponder: Received block blk_8605523115374691853 of size 67108864 from /10.251.125.237
081111 072750 23268 INFO dfs.DataNode$PacketResponder: PacketResponder 0 for block blk_8605523115374691853 terminating
081111 072750 23268 INFO dfs.DataNode$PacketResponder: Received block blk_8605523115374691853 of size 67108864 from /10.251.109.209
081111 072750 32 INFO dfs.FSNamesystem: BLOCK* NameSystem.addStoredBlock: blockMap updated: 10.251.127.191:50010 is added to blk_8605523115374691853 size 67108864
081111 072750 33 INFO dfs.FSNamesystem: BLOCK* NameSystem.addStoredBlock: blockMap updated: 10.251.109.209:50010 is added to blk_8605523115374691853 size 67108864
081111 072750 33 INFO dfs.FSNamesystem: BLOCK* NameSystem.addStoredBlock: blockMap updated: 10.251.125.237:50010 is added to blk_8605523115374691853 size 67108864
081111 072954 23150 INFO dfs.DataNode$DataXceiver: Receiving block blk_8788848053856392897 src: /10.251.42.16:44970 dest: /10.251.42.16:50010
081111 072954 23205 INFO dfs.DataNode$DataXceiver: Receiving block blk_8788848053856392897 src: /10.250.19.16:57474 dest: /10.250.19.16:50010
081111 072954 23525 INFO dfs.DataNode$DataXceiver: Receiving block blk_8788848053856392897 src: /10.251.42.16:42798 dest: /10.251.42.16:50010
081111 072954 35 INFO dfs.FSNamesystem: BLOCK* NameSystem.allocateBlock: /user/root/rand6/_temporary/_task_200811101024_0013_m_001304_0/part-01304. blk_8788848053856392897
081111 073028 23151 INFO dfs.DataNode$PacketResponder: PacketResponder 2 for block blk_8788848053856392897 terminating
081111 073028 23151 INFO dfs.DataNode$PacketResponder: Received block blk_8788848053856392897 of size 67108864 from /10.251.42.16
081111 073028 23206 INFO dfs.DataNode$PacketResponder: PacketResponder 0 for block blk_8788848053856392897 terminating
081111 073028 23206 INFO dfs.DataNode$PacketResponder: Received block blk_8788848053856392897 of size 67108864 from /10.250.19.16
081111 073028 23526 INFO dfs.DataNode$PacketResponder: PacketResponder 1 for block blk_8788848053856392897 terminating
081111 073028 23526 INFO dfs.DataNode$PacketResponder: Received block blk_8788848053856392897 of size 67108864 from /10.251.42.16
081111 073028 28 INFO dfs.FSNamesystem: BLOCK* NameSystem.addStoredBlock: blockMap updated: 10.251.42.16:50010 is added to blk_8788848053856392897 size 67108864
081111 073028 32 INFO dfs.FSNamesystem: BLOCK* NameSystem.addStoredBlock: blockMap updated: 10.250.19.16:50010 is added to blk_8788848053856392897 size 67108864
081111 073028 35 INFO dfs.FSNamesystem: BLOCK* NameSystem.addStoredBlock: blockMap updated: 10.251.31.180:50010 is added to blk_8788848053856392897 size 67108864
081111 073120 23223 INFO dfs.DataNode$DataXceiver: Receiving block blk_-2750736650713655450 src: /10.250.11.100:56819 dest: /10.250.11.100:50010
081111 073120 23383 INFO dfs.DataNode$DataXceiver: Receiving block blk_-2750736650713655450 src: /10.250.11.100:39928 dest: /10.250.11.100:50010
081111 073120 27 INFO dfs.FSNamesystem: BLOCK* NameSystem.allocateBlock: /user/root/rand6/_temporary/_task_200811101024_0013_m_001387_0/part-01387. blk_-2750736650713655450
081111 073121 8473 INFO dfs.DataNode$DataXceiver: Receiving block blk_-2750736650713655450 src: /10.251.43.21:41325 dest: /10.251.43.21:50010
081111 073149 23224 INFO dfs.DataNode$PacketResponder: PacketResponder 1 for block blk_-2750736650713655450 terminating
081111 073149 23224 INFO dfs.DataNode$PacketResponder: Received block blk_-2750736650713655450 of size 67108864 from /10.250.11.100
081111 073149 23384 INFO dfs.DataNode$PacketResponder: PacketResponder 2 for block blk_-2750736650713655450 terminating
081111 073149 23384 INFO dfs.DataNode$PacketResponder: Received block blk_-2750736650713655450 of size 67108864 from /10.250.11.100
081111 073149 27 INFO dfs.FSNamesystem: BLOCK* NameSystem.addStoredBlock: blockMap updated: 10.251.43.21:50010 is added to blk_-2750736650713655450 size 67108864
081111 073149 32 INFO dfs.FSNamesystem: BLOCK* NameSystem.addStoredBlock: blockMap updated: 10.250.11.100:50010 is added to blk_-2750736650713655450 size 67108864
081111 073149 34 INFO dfs.FSNamesystem: BLOCK* NameSystem.addStoredBlock: blockMap updated: 10.251.30.85:50010 is added to blk_-2750736650713655450 size 67108864
081111 073149 8474 INFO dfs.DataNode$PacketResponder: PacketResponder 0 for block blk_-2750736650713655450 terminating
081111 073149 8474 INFO dfs.DataNode$PacketResponder: Received block blk_-2750736650713655450 of size 67108864 from /10.251.43.21
081111 073441 23447 INFO dfs.DataNode$DataXceiver: Receiving block blk_4133626283977558610 src: /10.251.110.68:45475 dest: /10.251.110.68:50010
081111 073441 23577 INFO dfs.DataNode$DataXceiver: Receiving block blk_4133626283977558610 src: /10.251.110.68:39767 dest: /10.251.110.68:50010
081111 073441 34 INFO dfs.FSNamesystem: BLOCK* NameSystem.allocateBlock: /user/root/rand6/_temporary/_task_200811101024_0013_m_001467_0/part-01467. blk_4133626283977558610
081111 073444 13 INFO dfs.DataBlockScanner: Verification succeeded for blk_-8291517804439170360
081111 073444 23469 INFO dfs.DataNode$DataXceiver: Receiving block blk_4133626283977558610 src: /10.251.43.210:34032 dest: /10.251.43.210:50010
081111 073510 23470 INFO dfs.DataNode$PacketResponder: PacketResponder 0 for block blk_4133626283977558610 terminating
081111 073510 23470 INFO dfs.DataNode$PacketResponder: Received block blk_4133626283977558610 of size 67108864 from /10.251.43.210
081111 073510 27 INFO dfs.FSNamesystem: BLOCK* NameSystem.addStoredBlock: blockMap updated: 10.251.75.49:50010 is added to blk_4133626283977558610 size 67108864
081111 073511 23448 INFO dfs.DataNode$PacketResponder: PacketResponder 1 for block blk_4133626283977558610 terminating
081111 073511 23448 INFO dfs.DataNode$PacketResponder: Received block blk_4133626283977558610 of size 67108864 from /10.251.110.68
081111 073511 23580 INFO dfs.DataNode$PacketResponder: PacketResponder 2 for block blk_4133626283977558610 terminating
081111 073511 23580 INFO dfs.DataNode$PacketResponder: Received block blk_4133626283977558610 of size 67108864 from /10.251.110.68
081111 073511 26 INFO dfs.FSNamesystem: BLOCK* NameSystem.addStoredBlock: blockMap updated: 10.251.43.210:50010 is added to blk_4133626283977558610 size 67108864
081111 073511 33 INFO dfs.FSNamesystem: BLOCK* NameSystem.addStoredBlock: blockMap updated: 10.251.110.68:50010 is added to blk_4133626283977558610 size 67108864
081111 074724 23600 INFO dfs.DataNode$DataXceiver: Receiving block blk_8620693458110829581 src: /10.251.71.146:46219 dest: /10.251.71.146:50010
081111 074724 23751 INFO dfs.DataNode$DataXceiver: Receiving block blk_8620693458110829581 src: /10.251.71.146:45769 dest: /10.251.71.146:50010
081111 074724 27 INFO dfs.FSNamesystem: BLOCK* NameSystem.allocateBlock: /user/root/rand6/_temporary/_task_200811101024_0013_m_001768_0/part-01768. blk_8620693458110829581
081111 074725 22358 INFO dfs.DataNode$DataXceiver: Receiving block blk_8620693458110829581 src: /10.250.6.223:48528 dest: /10.250.6.223:50010
081111 074937 22359 INFO dfs.DataNode$PacketResponder: PacketResponder 0 for block blk_8620693458110829581 terminating
081111 074937 22359 INFO dfs.DataNode$PacketResponder: Received block blk_8620693458110829581 of size 67108864 from /10.250.6.223
081111 074937 23601 INFO dfs.DataNode$PacketResponder: PacketResponder 2 for block blk_8620693458110829581 terminating
081111 074937 23601 INFO dfs.DataNode$PacketResponder: Received block blk_8620693458110829581 of size 67108864 from /10.251.71.146
081111 074937 23754 INFO dfs.DataNode$PacketResponder: PacketResponder 1 for block blk_8620693458110829581 terminating
081111 074937 23754 INFO dfs.DataNode$PacketResponder: Received block blk_8620693458110829581 of size 67108864 from /10.251.71.146
081111 074937 26 INFO dfs.FSNamesystem: BLOCK* NameSystem.addStoredBlock: blockMap updated: 10.250.6.223:50010 is added to blk_8620693458110829581 size 67108864
081111 074937 32 INFO dfs.FSNamesystem: BLOCK* NameSystem.addStoredBlock: blockMap updated: 10.251.106.10:50010 is added to blk_8620693458110829581 size 67108864
081111 074937 33 INFO dfs.FSNamesystem: BLOCK* NameSystem.addStoredBlock: blockMap updated: 10.251.71.146:50010 is added to blk_8620693458110829581 size 67108864
081111 075617 28 INFO dfs.FSNamesystem: BLOCK* NameSystem.delete: blk_2481804181292966518 is added to invalidSet of 10.250.7.230:50010
081111 075617 28 INFO dfs.FSNamesystem: BLOCK* NameSystem.delete: blk_2481804181292966518 is added to invalidSet of 10.251.203.149:50010
081111 075617 28 INFO dfs.FSNamesystem: BLOCK* NameSystem.delete: blk_2481804181292966518 is added to invalidSet of 10.251.215.70:50010
081111 075619 28 INFO dfs.FSNamesystem: BLOCK* NameSystem.delete: blk_1282830315552291603 is added to invalidSet of 10.251.25.237:50010
081111 075619 28 INFO dfs.FSNamesystem: BLOCK* NameSystem.delete: blk_1282830315552291603 is added to invalidSet of 10.251.35.1:50010
081111 075619 28 INFO dfs.FSNamesystem: BLOCK* NameSystem.delete: blk_1282830315552291603 is added to invalidSet of 10.251.71.146:50010
081111 075619 28 INFO dfs.FSNamesystem: BLOCK* NameSystem.delete: blk_-2305038116359260879 is added to invalidSet of 10.251.194.213:50010
081111 075619 28 INFO dfs.FSNamesystem: BLOCK* NameSystem.delete: blk_-2305038116359260879 is added to invalidSet of 10.251.39.192:50010
081111 075619 28 INFO dfs.FSNamesystem: BLOCK* NameSystem.delete: blk_-2305038116359260879 is added to invalidSet of 10.251.43.115:50010
081111 075619 28 INFO dfs.FSNamesystem: BLOCK* NameSystem.delete: blk_8060144582419214410 is added to invalidSet of 10.250.10.6:50010
081111 075619 28 INFO dfs.FSNamesystem: BLOCK* NameSystem.delete: blk_8060144582419214410 is added to invalidSet of 10.251.25.237:50010
081111 075619 28 INFO dfs.FSNamesystem: BLOCK* NameSystem.delete: blk_8060144582419214410 is added to invalidSet of 10.251.70.211:50010
081111 075623 28 INFO dfs.FSNamesystem: BLOCK* NameSystem.delete: blk_-5134438259366364485 is added to invalidSet of 10.251.125.174:50010
081111 075623 28 INFO dfs.FSNamesystem: BLOCK* NameSystem.delete: blk_-5134438259366364485 is added to invalidSet of 10.251.90.239:50010
081111 075623 28 INFO dfs.FSNamesystem: BLOCK* NameSystem.delete: blk_-5134438259366364485 is added to invalidSet of 10.251.90.64:50010
081111 075625 28 INFO dfs.FSNamesystem: BLOCK* NameSystem.delete: blk_-5730617745256796042 is added to invalidSet of 10.251.194.213:50010
081111 075625 28 INFO dfs.FSNamesystem: BLOCK* NameSystem.delete: blk_-5730617745256796042 is added to invalidSet of 10.251.70.112:50010
081111 075625 28 INFO dfs.FSNamesystem: BLOCK* NameSystem.delete: blk_-5730617745256796042 is added to invalidSet of 10.251.71.193:50010
081111 075631 28 INFO dfs.FSNamesystem: BLOCK* NameSystem.delete: blk_-7200032078273665712 is added to invalidSet of 10.251.39.179:50010
081111 075631 28 INFO dfs.FSNamesystem: BLOCK* NameSystem.delete: blk_-7200032078273665712 is added to invalidSet of 10.251.91.159:50010
081111 075631 28 INFO dfs.FSNamesystem: BLOCK* NameSystem.delete: blk_-7200032078273665712 is added to invalidSet of 10.251.91.229:50010
081111 075634 28 INFO dfs.FSNamesystem: BLOCK* NameSystem.delete: blk_4865110016582015190 is added to invalidSet of 10.251.194.129:50010
081111 075634 28 INFO dfs.FSNamesystem: BLOCK* NameSystem.delete: blk_4865110016582015190 is added to invalidSet of 10.251.25.237:50010
081111 075634 28 INFO dfs.FSNamesystem: BLOCK* NameSystem.delete: blk_4865110016582015190 is added to invalidSet of 10.251.35.1:50010
081111 075634 28 INFO dfs.FSNamesystem: BLOCK* NameSystem.delete: blk_7313202135241517208 is added to invalidSet of 10.251.37.240:50010
081111 075634 28 INFO dfs.FSNamesystem: BLOCK* NameSystem.delete: blk_7313202135241517208 is added to invalidSet of 10.251.67.211:50010
081111 075634 28 INFO dfs.FSNamesystem: BLOCK* NameSystem.delete: blk_7313202135241517208 is added to invalidSet of 10.251.75.143:50010
081111 075637 28 INFO dfs.FSNamesystem: BLOCK* NameSystem.delete: blk_-3637983751804906731 is added to invalidSet of 10.251.107.242:50010
081111 075637 28 INFO dfs.FSNamesystem: BLOCK* NameSystem.delete: blk_-3637983751804906731 is added to invalidSet of 10.251.123.20:50010
081111 075637 28 INFO dfs.FSNamesystem: BLOCK* NameSystem.delete: blk_-3637983751804906731 is added to invalidSet of 10.251.90.239:50010
081111 075638 28 INFO dfs.FSNamesystem: BLOCK* NameSystem.delete: blk_6824128657493078993 is added to invalidSet of 10.250.5.161:50010
081111 075638 28 INFO dfs.FSNamesystem: BLOCK* NameSystem.delete: blk_6824128657493078993 is added to invalidSet of 10.250.7.146:50010
081111 075638 28 INFO dfs.FSNamesystem: BLOCK* NameSystem.delete: blk_6824128657493078993 is added to invalidSet of 10.250.7.96:50010
081111 075812 19 INFO dfs.FSDataset: Deleting block blk_-5730617745256796042 file /mnt/hadoop/dfs/data/current/subdir10/blk_-5730617745256796042
081111 075812 19 INFO dfs.FSDataset: Deleting block blk_-7200032078273665712 file /mnt/hadoop/dfs/data/current/subdir0/blk_-7200032078273665712
081111 075812 19 INFO dfs.FSDataset: Deleting block blk_-7200032078273665712 file /mnt/hadoop/dfs/data/current/subdir29/blk_-7200032078273665712
081111 075813 19 INFO dfs.FSDataset: Deleting block blk_-5134438259366364485 file /mnt/hadoop/dfs/data/current/subdir15/blk_-5134438259366364485
081111 075820 19 INFO dfs.FSDataset: Deleting block blk_-7200032078273665712 file /mnt/hadoop/dfs/data/current/subdir24/blk_-7200032078273665712
081111 075841 19 INFO dfs.FSDataset: Deleting block blk_-5730617745256796042 file /mnt/hadoop/dfs/data/current/subdir4/blk_-5730617745256796042
081111 075843 18 INFO dfs.FSDataset: Deleting block blk_-5134438259366364485 file /mnt/hadoop/dfs/data/current/subdir38/blk_-5134438259366364485
081111 075850 18 INFO dfs.FSDataset: Deleting block blk_-3637983751804906731 file /mnt/hadoop/dfs/data/current/subdir42/blk_-3637983751804906731
081111 075850 19 INFO dfs.FSDataset: Deleting block blk_-2305038116359260879 file /mnt/hadoop/dfs/data/current/blk_-2305038116359260879
081111 075852 19 INFO dfs.FSDataset: Deleting block blk_1282830315552291603 file /mnt/hadoop/dfs/data/current/blk_1282830315552291603
081111 075852 19 INFO dfs.FSDataset: Deleting block blk_-3637983751804906731 file /mnt/hadoop/dfs/data/current/subdir24/blk_-3637983751804906731
081111 075854 19 INFO dfs.FSDataset: Deleting block blk_-5134438259366364485 file /mnt/hadoop/dfs/data/current/subdir63/blk_-5134438259366364485
081111 075856 18 INFO dfs.FSDataset: Deleting block blk_-2305038116359260879 file /mnt/hadoop/dfs/data/current/blk_-2305038116359260879
081111 075856 19 INFO dfs.FSDataset: Deleting block blk_2481804181292966518 file /mnt/hadoop/dfs/data/current/subdir12/blk_2481804181292966518
081111 075856 19 INFO dfs.FSDataset: Deleting block blk_-3637983751804906731 file /mnt/hadoop/dfs/data/current/subdir16/blk_-3637983751804906731
081111 075902 19 INFO dfs.FSDataset: Deleting block blk_-5730617745256796042 file /mnt/hadoop/dfs/data/current/subdir46/blk_-5730617745256796042
081111 075904 19 INFO dfs.FSDataset: Deleting block blk_4865110016582015190 file /mnt/hadoop/dfs/data/current/subdir54/blk_4865110016582015190
081111 075905 19 INFO dfs.FSDataset: Deleting block blk_1282830315552291603 file /mnt/hadoop/dfs/data/current/blk_1282830315552291603
081111 075906 19 INFO dfs.FSDataset: Deleting block blk_8060144582419214410 file /mnt/hadoop/dfs/data/current/blk_8060144582419214410
081111 075907 19 INFO dfs.FSDataset: Deleting block blk_4865110016582015190 file /mnt/hadoop/dfs/data/current/subdir26/blk_4865110016582015190
081111 075911 19 INFO dfs.FSDataset: Deleting block blk_1282830315552291603 file /mnt/hadoop/dfs/data/current/blk_1282830315552291603
081111 075912 19 INFO dfs.FSDataset: Deleting block blk_-2305038116359260879 file /mnt/hadoop/dfs/data/current/blk_-2305038116359260879
081111 075913 19 INFO dfs.FSDataset: Deleting block blk_2481804181292966518 file /mnt/hadoop/dfs/data/current/subdir7/blk_2481804181292966518
081111 075914 19 INFO dfs.FSDataset: Deleting block blk_2481804181292966518 file /mnt/hadoop/dfs/data/current/subdir49/blk_2481804181292966518
081111 075918 19 INFO dfs.FSDataset: Deleting block blk_6824128657493078993 file /mnt/hadoop/dfs/data/current/subdir33/blk_6824128657493078993
081111 075918 19 INFO dfs.FSDataset: Deleting block blk_7313202135241517208 file /mnt/hadoop/dfs/data/current/subdir27/blk_7313202135241517208
081111 075927 19 INFO dfs.FSDataset: Deleting block blk_6824128657493078993 file /mnt/hadoop/dfs/data/current/subdir56/blk_6824128657493078993
081111 075932 19 INFO dfs.FSDataset: Deleting block blk_7313202135241517208 file /mnt/hadoop/dfs/data/current/subdir52/blk_7313202135241517208
081111 075935 19 INFO dfs.FSDataset: Deleting block blk_4865110016582015190 file /mnt/hadoop/dfs/data/current/subdir35/blk_4865110016582015190
081111 075937 19 INFO dfs.FSDataset: Deleting block blk_7313202135241517208 file /mnt/hadoop/dfs/data/current/subdir47/blk_7313202135241517208
081111 075959 19 INFO dfs.FSDataset: Deleting block blk_6824128657493078993 file /mnt/hadoop/dfs/data/current/subdir36/blk_6824128657493078993
081111 080007 19 INFO dfs.FSDataset: Deleting block blk_8060144582419214410 file /mnt/hadoop/dfs/data/current/blk_8060144582419214410
081111 080042 19 INFO dfs.FSDataset: Deleting block blk_8060144582419214410 file /mnt/hadoop/dfs/data/current/blk_8060144582419214410
081111 080324 23827 INFO dfs.DataNode$DataXceiver: Receiving block blk_-4212577709080139982 src: /10.250.14.143:41097 dest: /10.250.14.143:50010
081111 080324 23928 INFO dfs.DataNode$DataXceiver: Receiving block blk_-4212577709080139982 src: /10.250.14.143:43323 dest: /10.250.14.143:50010
081111 080324 27 INFO dfs.FSNamesystem: BLOCK* NameSystem.allocateBlock: /user/root/rand7/_temporary/_task_200811101024_0014_m_000094_0/part-00094. blk_-4212577709080139982
081111 080325 23938 INFO dfs.DataNode$DataXceiver: Receiving block blk_-4212577709080139982 src: /10.251.65.237:45328 dest: /10.251.65.237:50010
081111 080402 23828 INFO dfs.DataNode$PacketResponder: PacketResponder 2 for block blk_-4212577709080139982 terminating
081111 080402 23828 INFO dfs.DataNode$PacketResponder: Received block blk_-4212577709080139982 of size 67108864 from /10.250.14.143
081111 080402 23929 INFO dfs.DataNode$PacketResponder: PacketResponder 1 for block blk_-4212577709080139982 terminating
081111 080402 23929 INFO dfs.DataNode$PacketResponder: Received block blk_-4212577709080139982 of size 67108864 from /10.250.14.143
081111 080402 23939 INFO dfs.DataNode$PacketResponder: PacketResponder 0 for block blk_-4212577709080139982 terminating
081111 080402 23939 INFO dfs.DataNode$PacketResponder: Received block blk_-4212577709080139982 of size 67108864 from /10.251.65.237
081111 080402 29 INFO dfs.FSNamesystem: BLOCK* NameSystem.addStoredBlock: blockMap updated: 10.251.67.4:50010 is added to blk_-4212577709080139982 size 67108864
081111 080402 35 INFO dfs.FSNamesystem: BLOCK* NameSystem.addStoredBlock: blockMap updated: 10.251.65.237:50010 is added to blk_-4212577709080139982 size 67108864
081111 080403 29 INFO dfs.FSNamesystem: BLOCK* NameSystem.addStoredBlock: blockMap updated: 10.250.14.143:50010 is added to blk_-4212577709080139982 size 67108864
081111 080708 23934 INFO dfs.DataNode$DataXceiver: Receiving block blk_3332144381236766464 src: /10.251.39.179:53458 dest: /10.251.39.179:50010
081111 080708 24024 INFO dfs.DataNode$DataXceiver: Receiving block blk_3332144381236766464 src: /10.250.19.227:53791 dest: /10.250.19.227:50010
081111 080708 24081 INFO dfs.DataNode$DataXceiver: Receiving block blk_3332144381236766464 src: /10.250.19.227:39162 dest: /10.250.19.227:50010
081111 080708 32 INFO dfs.FSNamesystem: BLOCK* NameSystem.allocateBlock: /user/root/rand7/_temporary/_task_200811101024_0014_m_000325_0/part-00325. blk_3332144381236766464
081111 080754 23935 INFO dfs.DataNode$PacketResponder: PacketResponder 0 for block blk_3332144381236766464 terminating
081111 080754 23935 INFO dfs.DataNode$PacketResponder: Received block blk_3332144381236766464 of size 67108864 from /10.251.39.179
081111 080754 24025 INFO dfs.DataNode$PacketResponder: PacketResponder 2 for block blk_3332144381236766464 terminating
081111 080754 24025 INFO dfs.DataNode$PacketResponder: Received block blk_3332144381236766464 of size 67108864 from /10.250.19.227
081111 080754 24082 INFO dfs.DataNode$PacketResponder: PacketResponder 1 for block blk_3332144381236766464 terminating
081111 080754 24082 INFO dfs.DataNode$PacketResponder: Received block blk_3332144381236766464 of size 67108864 from /10.250.19.227
081111 080754 31 INFO dfs.FSNamesystem: BLOCK* NameSystem.addStoredBlock: blockMap updated: 10.251.38.214:50010 is added to blk_3332144381236766464 size 67108864
081111 080754 31 INFO dfs.FSNamesystem: BLOCK* NameSystem.addStoredBlock: blockMap updated: 10.251.39.179:50010 is added to blk_3332144381236766464 size 67108864
081111 080754 33 INFO dfs.FSNamesystem: BLOCK* NameSystem.addStoredBlock: blockMap updated: 10.250.19.227:50010 is added to blk_3332144381236766464 size 67108864
081111 080839 24200 INFO dfs.DataNode$DataXceiver: Receiving block blk_6430310049482619528 src: /10.251.26.8:44376 dest: /10.251.26.8:50010
081111 080839 33 INFO dfs.FSNamesystem: BLOCK* NameSystem.allocateBlock: /user/root/rand7/_temporary/_task_200811101024_0014_m_000321_0/part-00321. blk_6430310049482619528
081111 080840 24033 INFO dfs.DataNode$DataXceiver: Receiving block blk_6430310049482619528 src: /10.251.26.8:37182 dest: /10.251.26.8:50010
081111 080840 24127 INFO dfs.DataNode$DataXceiver: Receiving block blk_6430310049482619528 src: /10.251.65.237:53670 dest: /10.251.65.237:50010
081111 080847 23621 INFO dfs.DataNode$DataXceiver: Receiving block blk_-3488447921446925625 src: /10.251.67.113:40272 dest: /10.251.67.113:50010
081111 080847 23836 INFO dfs.DataNode$DataXceiver: Receiving block blk_-3488447921446925625 src: /10.251.67.113:43084 dest: /10.251.67.113:50010
081111 080847 23848 INFO dfs.DataNode$DataXceiver: Receiving block blk_-3488447921446925625 src: /10.251.75.228:32860 dest: /10.251.75.228:50010
081111 080847 28 INFO dfs.FSNamesystem: BLOCK* NameSystem.allocateBlock: /user/root/rand7/_temporary/_task_200811101024_0014_m_000605_0/part-00605. blk_-3488447921446925625
081111 080916 24037 INFO dfs.DataNode$PacketResponder: PacketResponder 1 for block blk_6430310049482619528 terminating
081111 080916 24037 INFO dfs.DataNode$PacketResponder: Received block blk_6430310049482619528 of size 67108864 from /10.251.26.8
081111 080916 24128 INFO dfs.DataNode$PacketResponder: PacketResponder 0 for block blk_6430310049482619528 terminating
081111 080916 24128 INFO dfs.DataNode$PacketResponder: Received block blk_6430310049482619528 of size 67108864 from /10.251.65.237
081111 080916 24201 INFO dfs.DataNode$PacketResponder: PacketResponder 2 for block blk_6430310049482619528 terminating
081111 080916 24201 INFO dfs.DataNode$PacketResponder: Received block blk_6430310049482619528 of size 67108864 from /10.251.26.8
081111 080916 27 INFO dfs.FSNamesystem: BLOCK* NameSystem.addStoredBlock: blockMap updated: 10.251.122.79:50010 is added to blk_6430310049482619528 size 67108864
081111 080916 31 INFO dfs.FSNamesystem: BLOCK* NameSystem.addStoredBlock: blockMap updated: 10.251.65.237:50010 is added to blk_6430310049482619528 size 67108864
081111 080916 34 INFO dfs.FSNamesystem: BLOCK* NameSystem.addStoredBlock: blockMap updated: 10.251.26.8:50010 is added to blk_6430310049482619528 size 67108864
081111 080925 23622 INFO dfs.DataNode$PacketResponder: PacketResponder 1 for block blk_-3488447921446925625 terminating
081111 080925 23622 INFO dfs.DataNode$PacketResponder: Received block blk_-3488447921446925625 of size 67108864 from /10.251.67.113
081111 080925 23837 INFO dfs.DataNode$PacketResponder: PacketResponder 2 for block blk_-3488447921446925625 terminating
081111 080925 23837 INFO dfs.DataNode$PacketResponder: Received block blk_-3488447921446925625 of size 67108864 from /10.251.67.113
081111 080925 23849 INFO dfs.DataNode$PacketResponder: PacketResponder 0 for block blk_-3488447921446925625 terminating
081111 080925 23849 INFO dfs.DataNode$PacketResponder: Received block blk_-3488447921446925625 of size 67108864 from /10.251.75.228
081111 080925 26 INFO dfs.FSNamesystem: BLOCK* NameSystem.addStoredBlock: blockMap updated: 10.251.67.113:50010 is added to blk_-3488447921446925625 size 67108864
081111 080925 33 INFO dfs.FSNamesystem: BLOCK* NameSystem.addStoredBlock: blockMap updated: 10.251.73.220:50010 is added to blk_-3488447921446925625 size 67108864
081111 080925 35 INFO dfs.FSNamesystem: BLOCK* NameSystem.addStoredBlock: blockMap updated: 10.251.75.228:50010 is added to blk_-3488447921446925625 size 67108864
081111 080930 24037 INFO dfs.DataNode$DataXceiver: Receiving block blk_8813575291771973635 src: /10.251.70.211:53442 dest: /10.251.70.211:50010
081111 080930 24063 INFO dfs.DataNode$DataXceiver: Receiving block blk_8813575291771973635 src: /10.251.70.211:44169 dest: /10.251.70.211:50010
081111 080930 27 INFO dfs.FSNamesystem: BLOCK* NameSystem.allocateBlock: /user/root/rand7/_temporary/_task_200811101024_0014_m_000691_0/part-00691. blk_8813575291771973635
081111 080933 23731 INFO dfs.DataNode$DataXceiver: Receiving block blk_8813575291771973635 src: /10.250.6.4:58658 dest: /10.250.6.4:50010
081111 080934 19 INFO dfs.DataNode: 10.251.106.10:50010 Starting thread to transfer block blk_-2742852126536126969 to 10.251.38.53:50010
081111 080934 19 INFO dfs.FSNamesystem: BLOCK* ask 10.251.106.10:50010 to replicate blk_-2742852126536126969 to datanode(s) 10.251.38.53:50010
081111 080934 24110 INFO dfs.DataNode$DataXceiver: Receiving block blk_-2742852126536126969 src: /10.251.106.10:38470 dest: /10.251.106.10:50010
081111 080954 22700 INFO dfs.DataNode$DataTransfer: 10.251.106.10:50010:Transmitted block blk_-2742852126536126969 to /10.251.38.53:50010
081111 080954 24110 INFO dfs.DataNode$DataXceiver: Received block blk_-2742852126536126969 src: /10.251.106.10:38470 dest: /10.251.106.10:50010 of size 67108864
081111 080954 29 INFO dfs.FSNamesystem: BLOCK* NameSystem.addStoredBlock: blockMap updated: 10.251.38.53:50010 is added to blk_-2742852126536126969 size 67108864
081111 081014 23732 INFO dfs.DataNode$PacketResponder: PacketResponder 0 for block blk_8813575291771973635 terminating
081111 081014 23732 INFO dfs.DataNode$PacketResponder: Received block blk_8813575291771973635 of size 67108864 from /10.250.6.4
081111 081015 24039 INFO dfs.DataNode$PacketResponder: PacketResponder 1 for block blk_8813575291771973635 terminating
081111 081015 24039 INFO dfs.DataNode$PacketResponder: Received block blk_8813575291771973635 of size 67108864 from /10.251.70.211
081111 081015 24065 INFO dfs.DataNode$PacketResponder: PacketResponder 2 for block blk_8813575291771973635 terminating
081111 081015 24065 INFO dfs.DataNode$PacketResponder: Received block blk_8813575291771973635 of size 67108864 from /10.251.70.211
081111 081015 28 INFO dfs.FSNamesystem: BLOCK* NameSystem.addStoredBlock: blockMap updated: 10.251.70.211:50010 is added to blk_8813575291771973635 size 67108864
081111 081015 29 INFO dfs.FSNamesystem: BLOCK* NameSystem.addStoredBlock: blockMap updated: 10.251.197.161:50010 is added to blk_8813575291771973635 size 67108864
081111 081015 33 INFO dfs.FSNamesystem: BLOCK* NameSystem.addStoredBlock: blockMap updated: 10.250.6.4:50010 is added to blk_8813575291771973635 size 67108864
081111 081403 30 INFO dfs.FSNamesystem: BLOCK* NameSystem.addStoredBlock: blockMap updated: 10.251.39.160:50010 is added to blk_-2742852126536126969 size 67108864
081111 081414 19 INFO dfs.FSDataset: Deleting block blk_-2742852126536126969 file /mnt/hadoop/dfs/data/current/subdir56/blk_-2742852126536126969
081111 081725 23942 INFO dfs.DataNode$DataXceiver: Receiving block blk_-5030330411019097346 src: /10.251.214.112:53676 dest: /10.251.214.112:50010
081111 081725 24142 INFO dfs.DataNode$DataXceiver: Receiving block blk_-5030330411019097346 src: /10.251.202.209:56095 dest: /10.251.202.209:50010
081111 081725 24328 INFO dfs.DataNode$DataXceiver: Receiving block blk_-5030330411019097346 src: /10.251.214.112:50711 dest: /10.251.214.112:50010
081111 081725 28 INFO dfs.FSNamesystem: BLOCK* NameSystem.allocateBlock: /user/root/rand7/_temporary/_task_200811101024_0014_m_000788_0/part-00788. blk_-5030330411019097346
081111 081811 23945 INFO dfs.DataNode$PacketResponder: PacketResponder 1 for block blk_-5030330411019097346 terminating
081111 081811 23945 INFO dfs.DataNode$PacketResponder: Received block blk_-5030330411019097346 of size 67108864 from /10.251.214.112
081111 081811 24143 INFO dfs.DataNode$PacketResponder: PacketResponder 0 for block blk_-5030330411019097346 terminating
081111 081811 24143 INFO dfs.DataNode$PacketResponder: Received block blk_-5030330411019097346 of size 67108864 from /10.251.202.209
081111 081811 24329 INFO dfs.DataNode$PacketResponder: PacketResponder 2 for block blk_-5030330411019097346 terminating
081111 081811 24329 INFO dfs.DataNode$PacketResponder: Received block blk_-5030330411019097346 of size 67108864 from /10.251.214.112
081111 081811 26 INFO dfs.FSNamesystem: BLOCK* NameSystem.addStoredBlock: blockMap updated: 10.251.214.112:50010 is added to blk_-5030330411019097346 size 67108864
081111 081811 27 INFO dfs.FSNamesystem: BLOCK* NameSystem.addStoredBlock: blockMap updated: 10.251.199.150:50010 is added to blk_-5030330411019097346 size 67108864
081111 081811 34 INFO dfs.FSNamesystem: BLOCK* NameSystem.addStoredBlock: blockMap updated: 10.251.202.209:50010 is added to blk_-5030330411019097346 size 67108864
081111 082039 24330 INFO dfs.DataNode$DataXceiver: Receiving block blk_-1574467060052779234 src: /10.251.75.49:34893 dest: /10.251.75.49:50010
081111 082039 31 INFO dfs.FSNamesystem: BLOCK* NameSystem.allocateBlock: /user/root/rand7/_temporary/_task_200811101024_0014_m_000903_0/part-00903. blk_-1574467060052779234
081111 082040 24084 INFO dfs.DataNode$DataXceiver: Receiving block blk_-1574467060052779234 src: /10.251.199.159:51151 dest: /10.251.199.159:50010
081111 082040 24392 INFO dfs.DataNode$DataXceiver: Receiving block blk_-1574467060052779234 src: /10.251.75.49:39453 dest: /10.251.75.49:50010
081111 082127 24085 INFO dfs.DataNode$PacketResponder: PacketResponder 0 for block blk_-1574467060052779234 terminating
081111 082127 24085 INFO dfs.DataNode$PacketResponder: Received block blk_-1574467060052779234 of size 67108864 from /10.251.199.159
081111 082127 24331 INFO dfs.DataNode$PacketResponder: PacketResponder 2 for block blk_-1574467060052779234 terminating
081111 082127 24331 INFO dfs.DataNode$PacketResponder: Received block blk_-1574467060052779234 of size 67108864 from /10.251.75.49
081111 082127 24393 INFO dfs.DataNode$PacketResponder: PacketResponder 1 for block blk_-1574467060052779234 terminating
081111 082127 24393 INFO dfs.DataNode$PacketResponder: Received block blk_-1574467060052779234 of size 67108864 from /10.251.75.49
081111 082127 30 INFO dfs.FSNamesystem: BLOCK* NameSystem.addStoredBlock: blockMap updated: 10.251.199.159:50010 is added to blk_-1574467060052779234 size 67108864
081111 082127 32 INFO dfs.FSNamesystem: BLOCK* NameSystem.addStoredBlock: blockMap updated: 10.251.195.52:50010 is added to blk_-1574467060052779234 size 67108864
081111 082127 33 INFO dfs.FSNamesystem: BLOCK* NameSystem.addStoredBlock: blockMap updated: 10.251.75.49:50010 is added to blk_-1574467060052779234 size 67108864
081111 083513 24187 INFO dfs.DataNode$DataXceiver: Receiving block blk_-6802388911178677115 src: /10.250.11.85:45543 dest: /10.250.11.85:50010
081111 083513 24400 INFO dfs.DataNode$DataXceiver: Receiving block blk_-6802388911178677115 src: /10.250.11.85:38428 dest: /10.250.11.85:50010
081111 083513 24560 INFO dfs.DataNode$DataXceiver: Receiving block blk_-6802388911178677115 src: /10.251.202.134:36679 dest: /10.251.202.134:50010
081111 083513 33 INFO dfs.FSNamesystem: BLOCK* NameSystem.allocateBlock: /user/root/rand7/_temporary/_task_200811101024_0014_m_001287_0/part-01287. blk_-6802388911178677115
081111 083550 24190 INFO dfs.DataNode$PacketResponder: PacketResponder 1 for block blk_-6802388911178677115 terminating
081111 083550 24190 INFO dfs.DataNode$PacketResponder: Received block blk_-6802388911178677115 of size 67108864 from /10.250.11.85
081111 083550 24401 INFO dfs.DataNode$PacketResponder: PacketResponder 2 for block blk_-6802388911178677115 terminating
081111 083550 24401 INFO dfs.DataNode$PacketResponder: Received block blk_-6802388911178677115 of size 67108864 from /10.250.11.85
081111 083551 24561 INFO dfs.DataNode$PacketResponder: PacketResponder 0 for block blk_-6802388911178677115 terminating
081111 083551 24561 INFO dfs.DataNode$PacketResponder: Received block blk_-6802388911178677115 of size 67108864 from /10.251.202.134
081111 083551 26 INFO dfs.FSNamesystem: BLOCK* NameSystem.addStoredBlock: blockMap updated: 10.251.202.134:50010 is added to blk_-6802388911178677115 size 67108864
081111 083551 28 INFO dfs.FSNamesystem: BLOCK* NameSystem.addStoredBlock: blockMap updated: 10.250.11.85:50010 is added to blk_-6802388911178677115 size 67108864
081111 083551 29 INFO dfs.FSNamesystem: BLOCK* NameSystem.addStoredBlock: blockMap updated: 10.250.7.244:50010 is added to blk_-6802388911178677115 size 67108864
081111 084158 24543 INFO dfs.DataNode$DataXceiver: Receiving block blk_1876424852335870229 src: /10.251.73.188:41559 dest: /10.251.73.188:50010
081111 084158 24764 INFO dfs.DataNode$DataXceiver: Receiving block blk_1876424852335870229 src: /10.251.73.188:60009 dest: /10.251.73.188:50010
081111 084158 31 INFO dfs.FSNamesystem: BLOCK* NameSystem.allocateBlock: /user/root/rand7/_temporary/_task_200811101024_0014_m_001552_0/part-01552. blk_1876424852335870229
081111 084202 24493 INFO dfs.DataNode$DataXceiver: Receiving block blk_1876424852335870229 src: /10.251.31.242:60701 dest: /10.251.31.242:50010
081111 084248 24494 INFO dfs.DataNode$PacketResponder: PacketResponder 0 for block blk_1876424852335870229 terminating
081111 084248 24494 INFO dfs.DataNode$PacketResponder: Received block blk_1876424852335870229 of size 67108864 from /10.251.31.242
081111 084248 24548 INFO dfs.DataNode$PacketResponder: PacketResponder 2 for block blk_1876424852335870229 terminating
081111 084248 24548 INFO dfs.DataNode$PacketResponder: Received block blk_1876424852335870229 of size 67108864 from /10.251.73.188
081111 084248 24765 INFO dfs.DataNode$PacketResponder: PacketResponder 1 for block blk_1876424852335870229 terminating
081111 084248 24765 INFO dfs.DataNode$PacketResponder: Received block blk_1876424852335870229 of size 67108864 from /10.251.73.188
081111 084248 27 INFO dfs.FSNamesystem: BLOCK* NameSystem.addStoredBlock: blockMap updated: 10.250.10.100:50010 is added to blk_1876424852335870229 size 67108864
081111 084248 27 INFO dfs.FSNamesystem: BLOCK* NameSystem.addStoredBlock: blockMap updated: 10.251.31.242:50010 is added to blk_1876424852335870229 size 67108864
081111 084248 32 INFO dfs.FSNamesystem: BLOCK* NameSystem.addStoredBlock: blockMap updated: 10.251.73.188:50010 is added to blk_1876424852335870229 size 67108864
081111 085906 27 INFO dfs.FSNamesystem: BLOCK* NameSystem.delete: blk_6785559897150947866 is added to invalidSet of 10.250.11.100:50010
081111 085906 27 INFO dfs.FSNamesystem: BLOCK* NameSystem.delete: blk_6785559897150947866 is added to invalidSet of 10.250.14.224:50010
081111 085906 27 INFO dfs.FSNamesystem: BLOCK* NameSystem.delete: blk_6785559897150947866 is added to invalidSet of 10.251.29.239:50010
081111 085906 27 INFO dfs.FSNamesystem: BLOCK* NameSystem.delete: blk_-8949161137006151771 is added to invalidSet of 10.251.39.242:50010
081111 085906 27 INFO dfs.FSNamesystem: BLOCK* NameSystem.delete: blk_-8949161137006151771 is added to invalidSet of 10.251.66.102:50010
081111 085906 27 INFO dfs.FSNamesystem: BLOCK* NameSystem.delete: blk_-8949161137006151771 is added to invalidSet of 10.251.66.3:50010
081111 085909 27 INFO dfs.FSNamesystem: BLOCK* NameSystem.delete: blk_3403561360758684181 is added to invalidSet of 10.251.106.50:50010
081111 085909 27 INFO dfs.FSNamesystem: BLOCK* NameSystem.delete: blk_3403561360758684181 is added to invalidSet of 10.251.125.174:50010
081111 085909 27 INFO dfs.FSNamesystem: BLOCK* NameSystem.delete: blk_3403561360758684181 is added to invalidSet of 10.251.91.32:50010
081111 085913 27 INFO dfs.FSNamesystem: BLOCK* NameSystem.delete: blk_-8291517804439170360 is added to invalidSet of 10.251.126.255:50010
081111 085913 27 INFO dfs.FSNamesystem: BLOCK* NameSystem.delete: blk_-8291517804439170360 is added to invalidSet of 10.251.195.33:50010
081111 085913 27 INFO dfs.FSNamesystem: BLOCK* NameSystem.delete: blk_-8291517804439170360 is added to invalidSet of 10.251.39.209:50010
081111 085914 27 INFO dfs.FSNamesystem: BLOCK* NameSystem.delete: blk_451482405241067640 is added to invalidSet of 10.251.123.195:50010
081111 085914 27 INFO dfs.FSNamesystem: BLOCK* NameSystem.delete: blk_451482405241067640 is added to invalidSet of 10.251.214.112:50010
081111 085914 27 INFO dfs.FSNamesystem: BLOCK* NameSystem.delete: blk_451482405241067640 is added to invalidSet of 10.251.70.211:50010
081111 085915 27 INFO dfs.FSNamesystem: BLOCK* NameSystem.delete: blk_-2742852126536126969 is added to invalidSet of 10.251.106.10:50010
081111 085915 27 INFO dfs.FSNamesystem: BLOCK* NameSystem.delete: blk_-2742852126536126969 is added to invalidSet of 10.251.39.160:50010
081111 085915 27 INFO dfs.FSNamesystem: BLOCK* NameSystem.delete: blk_-2742852126536126969 is added to invalidSet of 10.251.43.147:50010
081111 085915 27 INFO dfs.FSNamesystem: BLOCK* NameSystem.delete: blk_-8074033429620018493 is added to invalidSet of 10.251.125.174:50010
081111 085915 27 INFO dfs.FSNamesystem: BLOCK* NameSystem.delete: blk_-8074033429620018493 is added to invalidSet of 10.251.215.16:50010
081111 085915 27 INFO dfs.FSNamesystem: BLOCK* NameSystem.delete: blk_-8074033429620018493 is added to invalidSet of 10.251.31.85:50010
081111 085918 27 INFO dfs.FSNamesystem: BLOCK* NameSystem.delete: blk_-6548530666486936833 is added to invalidSet of 10.251.110.68:50010
081111 085918 27 INFO dfs.FSNamesystem: BLOCK* NameSystem.delete: blk_-6548530666486936833 is added to invalidSet of 10.251.125.193:50010
081111 085918 27 INFO dfs.FSNamesystem: BLOCK* NameSystem.delete: blk_-6548530666486936833 is added to invalidSet of 10.251.197.226:50010
081111 085919 27 INFO dfs.FSNamesystem: BLOCK* NameSystem.delete: blk_8729944638084105345 is added to invalidSet of 10.251.29.239:50010
081111 085919 27 INFO dfs.FSNamesystem: BLOCK* NameSystem.delete: blk_8729944638084105345 is added to invalidSet of 10.251.30.179:50010
081111 085919 27 INFO dfs.FSNamesystem: BLOCK* NameSystem.delete: blk_8729944638084105345 is added to invalidSet of 10.251.70.211:50010
081111 085920 27 INFO dfs.FSNamesystem: BLOCK* NameSystem.delete: blk_8605523115374691853 is added to invalidSet of 10.251.109.209:50010
081111 085920 27 INFO dfs.FSNamesystem: BLOCK* NameSystem.delete: blk_8605523115374691853 is added to invalidSet of 10.251.125.237:50010
081111 085920 27 INFO dfs.FSNamesystem: BLOCK* NameSystem.delete: blk_8605523115374691853 is added to invalidSet of 10.251.127.191:50010
081111 085921 27 INFO dfs.FSNamesystem: BLOCK* NameSystem.delete: blk_8788848053856392897 is added to invalidSet of 10.250.19.16:50010
081111 085921 27 INFO dfs.FSNamesystem: BLOCK* NameSystem.delete: blk_8788848053856392897 is added to invalidSet of 10.251.31.180:50010
081111 085921 27 INFO dfs.FSNamesystem: BLOCK* NameSystem.delete: blk_8788848053856392897 is added to invalidSet of 10.251.42.16:50010
081111 085922 27 INFO dfs.FSNamesystem: BLOCK* NameSystem.delete: blk_-2750736650713655450 is added to invalidSet of 10.250.11.100:50010
081111 085922 27 INFO dfs.FSNamesystem: BLOCK* NameSystem.delete: blk_-2750736650713655450 is added to invalidSet of 10.251.30.85:50010
081111 085922 27 INFO dfs.FSNamesystem: BLOCK* NameSystem.delete: blk_-2750736650713655450 is added to invalidSet of 10.251.43.21:50010
081111 085923 27 INFO dfs.FSNamesystem: BLOCK* NameSystem.delete: blk_4133626283977558610 is added to invalidSet of 10.251.110.68:50010
081111 085923 27 INFO dfs.FSNamesystem: BLOCK* NameSystem.delete: blk_4133626283977558610 is added to invalidSet of 10.251.43.210:50010
081111 085923 27 INFO dfs.FSNamesystem: BLOCK* NameSystem.delete: blk_4133626283977558610 is added to invalidSet of 10.251.75.49:50010
081111 085926 27 INFO dfs.FSNamesystem: BLOCK* NameSystem.delete: blk_8620693458110829581 is added to invalidSet of 10.250.6.223:50010
081111 085926 27 INFO dfs.FSNamesystem: BLOCK* NameSystem.delete: blk_8620693458110829581 is added to invalidSet of 10.251.106.10:50010
081111 085926 27 INFO dfs.FSNamesystem: BLOCK* NameSystem.delete: blk_8620693458110829581 is added to invalidSet of 10.251.71.146:50010
081111 085933 19 INFO dfs.FSDataset: Deleting block blk_8729944638084105345 file /mnt/hadoop/dfs/data/current/subdir29/blk_8729944638084105345
081111 085937 19 INFO dfs.FSDataset: Deleting block blk_8620693458110829581 file /mnt/hadoop/dfs/data/current/subdir15/blk_8620693458110829581
081111 085944 19 INFO dfs.FSDataset: Deleting block blk_6785559897150947866 file /mnt/hadoop/dfs/data/current/subdir25/blk_6785559897150947866
081111 085957 19 INFO dfs.FSDataset: Deleting block blk_-8949161137006151771 file /mnt/hadoop/dfs/data/current/subdir23/blk_-8949161137006151771
081111 090006 19 INFO dfs.FSDataset: Deleting block blk_-8949161137006151771 file /mnt/hadoop/dfs/data/current/subdir38/blk_-8949161137006151771
081111 090012 18 INFO dfs.FSDataset: Deleting block blk_-2742852126536126969 file /mnt/hadoop/dfs/data/current/subdir36/blk_-2742852126536126969
081111 090013 19 INFO dfs.FSDataset: Deleting block blk_-8291517804439170360 file /mnt/hadoop/dfs/data/current/subdir32/blk_-8291517804439170360
081111 090021 18 INFO dfs.FSDataset: Deleting block blk_-8291517804439170360 file /mnt/hadoop/dfs/data/current/subdir56/blk_-8291517804439170360
081111 090036 19 INFO dfs.FSDataset: Deleting block blk_-8291517804439170360 file /mnt/hadoop/dfs/data/current/subdir41/blk_-8291517804439170360
081111 090038 19 INFO dfs.FSDataset: Deleting block blk_-8949161137006151771 file /mnt/hadoop/dfs/data/current/subdir6/blk_-8949161137006151771
081111 090041 19 INFO dfs.FSDataset: Deleting block blk_-8074033429620018493 file /mnt/hadoop/dfs/data/current/subdir31/blk_-8074033429620018493
081111 090045 19 INFO dfs.FSDataset: Deleting block blk_-8074033429620018493 file /mnt/hadoop/dfs/data/current/subdir11/blk_-8074033429620018493
081111 090048 19 INFO dfs.FSDataset: Deleting block blk_-6548530666486936833 file /mnt/hadoop/dfs/data/current/subdir41/blk_-6548530666486936833
081111 090059 19 INFO dfs.FSDataset: Deleting block blk_-6548530666486936833 file /mnt/hadoop/dfs/data/current/subdir4/blk_-6548530666486936833
081111 090107 18 INFO dfs.FSDataset: Deleting block blk_-6548530666486936833 file /mnt/hadoop/dfs/data/current/subdir4/blk_-6548530666486936833
081111 090118 19 INFO dfs.FSDataset: Deleting block blk_451482405241067640 file /mnt/hadoop/dfs/data/current/subdir47/blk_451482405241067640
081111 090121 19 INFO dfs.FSDataset: Deleting block blk_-2750736650713655450 file /mnt/hadoop/dfs/data/current/subdir8/blk_-2750736650713655450
081111 090126 19 INFO dfs.FSDataset: Deleting block blk_-8074033429620018493 file /mnt/hadoop/dfs/data/current/subdir49/blk_-8074033429620018493
081111 090130 19 INFO dfs.FSDataset: Deleting block blk_3403561360758684181 file /mnt/hadoop/dfs/data/current/subdir40/blk_3403561360758684181
081111 090131 19 INFO dfs.FSDataset: Deleting block blk_-2750736650713655450 file /mnt/hadoop/dfs/data/current/subdir46/blk_-2750736650713655450
081111 090135 19 INFO dfs.FSDataset: Deleting block blk_451482405241067640 file /mnt/hadoop/dfs/data/current/subdir39/blk_451482405241067640
081111 090136 19 INFO dfs.FSDataset: Deleting block blk_4133626283977558610 file /mnt/hadoop/dfs/data/current/subdir43/blk_4133626283977558610
081111 090143 19 INFO dfs.FSDataset: Deleting block blk_8729944638084105345 file /mnt/hadoop/dfs/data/current/subdir22/blk_8729944638084105345
081111 090144 19 INFO dfs.FSDataset: Deleting block blk_-2750736650713655450 file /mnt/hadoop/dfs/data/current/subdir55/blk_-2750736650713655450
081111 090148 19 INFO dfs.FSDataset: Deleting block blk_3403561360758684181 file /mnt/hadoop/dfs/data/current/subdir7/blk_3403561360758684181
081111 090150 19 WARN dfs.FSDataset: Unexpected error trying to delete block blk_6785559897150947866. BlockInfo not found in volumeMap.
081111 090150 19 WARN dfs.FSDataset: Unexpected error trying to delete block blk_8729944638084105345. BlockInfo not found in volumeMap.
081111 090153 19 INFO dfs.FSDataset: Deleting block blk_8620693458110829581 file /mnt/hadoop/dfs/data/current/subdir41/blk_8620693458110829581
081111 090156 19 INFO dfs.FSDataset: Deleting block blk_4133626283977558610 file /mnt/hadoop/dfs/data/current/subdir6/blk_4133626283977558610
081111 090157 19 INFO dfs.FSDataset: Deleting block blk_6785559897150947866 file /mnt/hadoop/dfs/data/current/subdir18/blk_6785559897150947866
081111 090157 19 INFO dfs.FSDataset: Deleting block blk_8729944638084105345 file /mnt/hadoop/dfs/data/current/subdir49/blk_8729944638084105345
081111 090159 19 INFO dfs.FSDataset: Deleting block blk_4133626283977558610 file /mnt/hadoop/dfs/data/current/subdir50/blk_4133626283977558610
081111 090200 19 INFO dfs.FSDataset: Deleting block blk_-2742852126536126969 file /mnt/hadoop/dfs/data/current/subdir16/blk_-2742852126536126969
081111 090200 19 INFO dfs.FSDataset: Deleting block blk_3403561360758684181 file /mnt/hadoop/dfs/data/current/subdir29/blk_3403561360758684181
081111 090201 19 INFO dfs.FSDataset: Deleting block blk_8788848053856392897 file /mnt/hadoop/dfs/data/current/subdir49/blk_8788848053856392897
081111 090203 19 WARN dfs.FSDataset: Unexpected error trying to delete block blk_8620693458110829581. BlockInfo not found in volumeMap.
081111 090204 19 INFO dfs.FSDataset: Deleting block blk_8605523115374691853 file /mnt/hadoop/dfs/data/current/subdir41/blk_8605523115374691853
081111 090207 19 INFO dfs.FSDataset: Deleting block blk_8788848053856392897 file /mnt/hadoop/dfs/data/current/subdir11/blk_8788848053856392897
081111 090219 19 INFO dfs.FSDataset: Deleting block blk_6785559897150947866 file /mnt/hadoop/dfs/data/current/subdir50/blk_6785559897150947866
081111 090228 19 INFO dfs.FSDataset: Deleting block blk_8788848053856392897 file /mnt/hadoop/dfs/data/current/subdir23/blk_8788848053856392897
081111 090245 19 INFO dfs.FSDataset: Deleting block blk_8620693458110829581 file /mnt/hadoop/dfs/data/current/subdir20/blk_8620693458110829581
081111 090250 18 INFO dfs.FSDataset: Deleting block blk_451482405241067640 file /mnt/hadoop/dfs/data/current/subdir36/blk_451482405241067640
081111 090255 19 INFO dfs.FSDataset: Deleting block blk_8605523115374691853 file /mnt/hadoop/dfs/data/current/subdir39/blk_8605523115374691853
081111 090308 19 INFO dfs.FSDataset: Deleting block blk_8605523115374691853 file /mnt/hadoop/dfs/data/current/subdir43/blk_8605523115374691853
081111 090710 25121 INFO dfs.DataNode$DataXceiver: Receiving block blk_1223786231046647803 src: /10.250.15.240:49931 dest: /10.250.15.240:50010
081111 090711 24961 INFO dfs.DataNode$DataXceiver: Receiving block blk_1223786231046647803 src: /10.250.15.240:52195 dest: /10.250.15.240:50010
081111 090711 25134 INFO dfs.DataNode$DataXceiver: Receiving block blk_1223786231046647803 src: /10.251.73.220:55924 dest: /10.251.73.220:50010
081111 090711 29 INFO dfs.FSNamesystem: BLOCK* NameSystem.allocateBlock: /user/root/rand8/_temporary/_task_200811101024_0015_m_000012_0/part-00012. blk_1223786231046647803
081111 090805 24963 INFO dfs.DataNode$PacketResponder: PacketResponder 1 for block blk_1223786231046647803 terminating
081111 090805 24963 INFO dfs.DataNode$PacketResponder: Received block blk_1223786231046647803 of size 67108864 from /10.250.15.240
081111 090805 25122 INFO dfs.DataNode$PacketResponder: PacketResponder 2 for block blk_1223786231046647803 terminating
081111 090805 25122 INFO dfs.DataNode$PacketResponder: Received block blk_1223786231046647803 of size 67108864 from /10.250.15.240
081111 090805 25135 INFO dfs.DataNode$PacketResponder: PacketResponder 0 for block blk_1223786231046647803 terminating
081111 090805 25135 INFO dfs.DataNode$PacketResponder: Received block blk_1223786231046647803 of size 67108864 from /10.251.73.220
081111 090805 27 INFO dfs.FSNamesystem: BLOCK* NameSystem.addStoredBlock: blockMap updated: 10.251.126.5:50010 is added to blk_1223786231046647803 size 67108864
081111 090805 30 INFO dfs.FSNamesystem: BLOCK* NameSystem.addStoredBlock: blockMap updated: 10.251.73.220:50010 is added to blk_1223786231046647803 size 67108864
081111 090805 31 INFO dfs.FSNamesystem: BLOCK* NameSystem.addStoredBlock: blockMap updated: 10.250.15.240:50010 is added to blk_1223786231046647803 size 67108864
081111 091229 25069 INFO dfs.DataNode$DataXceiver: Receiving block blk_-7476983186244565576 src: /10.251.35.1:56966 dest: /10.251.35.1:50010
081111 091229 25089 INFO dfs.DataNode$DataXceiver: Receiving block blk_-7476983186244565576 src: /10.250.19.227:60807 dest: /10.250.19.227:50010
081111 091229 25374 INFO dfs.DataNode$DataXceiver: Receiving block blk_-7476983186244565576 src: /10.251.35.1:58769 dest: /10.251.35.1:50010
081111 091229 35 INFO dfs.FSNamesystem: BLOCK* NameSystem.allocateBlock: /user/root/rand8/_temporary/_task_200811101024_0015_m_000693_0/part-00693. blk_-7476983186244565576
081111 091325 25070 INFO dfs.DataNode$PacketResponder: PacketResponder 2 for block blk_-7476983186244565576 terminating
081111 091325 25070 INFO dfs.DataNode$PacketResponder: Received block blk_-7476983186244565576 of size 67108864 from /10.251.35.1
081111 091325 25090 INFO dfs.DataNode$PacketResponder: PacketResponder 0 for block blk_-7476983186244565576 terminating
081111 091325 25090 INFO dfs.DataNode$PacketResponder: Received block blk_-7476983186244565576 of size 67108864 from /10.250.19.227
081111 091325 25375 INFO dfs.DataNode$PacketResponder: PacketResponder 1 for block blk_-7476983186244565576 terminating
081111 091325 25375 INFO dfs.DataNode$PacketResponder: Received block blk_-7476983186244565576 of size 67108864 from /10.251.35.1
081111 091325 27 INFO dfs.FSNamesystem: BLOCK* NameSystem.addStoredBlock: blockMap updated: 10.250.19.227:50010 is added to blk_-7476983186244565576 size 67108864
081111 091325 27 INFO dfs.FSNamesystem: BLOCK* NameSystem.addStoredBlock: blockMap updated: 10.251.74.227:50010 is added to blk_-7476983186244565576 size 67108864
081111 091325 30 INFO dfs.FSNamesystem: BLOCK* NameSystem.addStoredBlock: blockMap updated: 10.251.35.1:50010 is added to blk_-7476983186244565576 size 67108864
081111 091333 19 INFO dfs.FSDataset: Deleting block blk_-2742852126536126969 file /mnt/hadoop/dfs/data/current/subdir42/blk_-2742852126536126969
081111 091555 34 INFO dfs.FSNamesystem: BLOCK* NameSystem.allocateBlock: /user/root/rand8/_temporary/_task_200811101024_0015_m_000493_0/part-00493. blk_6143555259660688388
081111 091556 25191 INFO dfs.DataNode$DataXceiver: Receiving block blk_6143555259660688388 src: /10.250.11.53:36957 dest: /10.250.11.53:50010
081111 091556 25362 INFO dfs.DataNode$DataXceiver: Receiving block blk_6143555259660688388 src: /10.251.42.84:49391 dest: /10.251.42.84:50010
081111 091556 25714 INFO dfs.DataNode$DataXceiver: Receiving block blk_6143555259660688388 src: /10.251.42.84:55706 dest: /10.251.42.84:50010
081111 091630 25192 INFO dfs.DataNode$PacketResponder: PacketResponder 0 for block blk_6143555259660688388 terminating
081111 091630 25192 INFO dfs.DataNode$PacketResponder: Received block blk_6143555259660688388 of size 67108864 from /10.250.11.53
081111 091630 25364 INFO dfs.DataNode$PacketResponder: PacketResponder 2 for block blk_6143555259660688388 terminating
081111 091630 25364 INFO dfs.DataNode$PacketResponder: Received block blk_6143555259660688388 of size 67108864 from /10.251.42.84
081111 091630 25715 INFO dfs.DataNode$PacketResponder: PacketResponder 1 for block blk_6143555259660688388 terminating
081111 091630 25715 INFO dfs.DataNode$PacketResponder: Received block blk_6143555259660688388 of size 67108864 from /10.251.42.84
081111 091630 26 INFO dfs.FSNamesystem: BLOCK* NameSystem.addStoredBlock: blockMap updated: 10.250.5.161:50010 is added to blk_6143555259660688388 size 67108864
081111 091630 29 INFO dfs.FSNamesystem: BLOCK* NameSystem.addStoredBlock: blockMap updated: 10.250.11.53:50010 is added to blk_6143555259660688388 size 67108864
081111 091630 34 INFO dfs.FSNamesystem: BLOCK* NameSystem.addStoredBlock: blockMap updated: 10.251.42.84:50010 is added to blk_6143555259660688388 size 67108864
081111 092038 25322 INFO dfs.DataNode$DataXceiver: Receiving block blk_4534374321165540389 src: /10.251.29.239:60933 dest: /10.251.29.239:50010
081111 092038 32 INFO dfs.FSNamesystem: BLOCK* NameSystem.allocateBlock: /user/root/rand8/_temporary/_task_200811101024_0015_m_000809_0/part-00809. blk_4534374321165540389
081111 092039 25187 INFO dfs.DataNode$DataXceiver: Receiving block blk_4534374321165540389 src: /10.251.29.239:47122 dest: /10.251.29.239:50010
081111 092039 25406 INFO dfs.DataNode$DataXceiver: Receiving block blk_4534374321165540389 src: /10.250.9.207:38153 dest: /10.250.9.207:50010
081111 092104 22786 INFO dfs.DataNode$DataXceiver: Receiving block blk_604178945649099933 src: /10.250.7.146:55193 dest: /10.250.7.146:50010
081111 092104 25253 INFO dfs.DataNode$DataXceiver: Receiving block blk_604178945649099933 src: /10.250.7.146:52406 dest: /10.250.7.146:50010
081111 092104 29 INFO dfs.FSNamesystem: BLOCK* NameSystem.allocateBlock: /user/root/rand8/_temporary/_task_200811101024_0015_m_000537_0/part-00537. blk_604178945649099933
081111 092105 25235 INFO dfs.DataNode$DataXceiver: Receiving block blk_604178945649099933 src: /10.251.107.50:42417 dest: /10.251.107.50:50010
081111 092112 25188 INFO dfs.DataNode$PacketResponder: PacketResponder 1 for block blk_4534374321165540389 terminating
081111 092112 25188 INFO dfs.DataNode$PacketResponder: Received block blk_4534374321165540389 of size 67108864 from /10.251.29.239
081111 092112 25323 INFO dfs.DataNode$PacketResponder: PacketResponder 2 for block blk_4534374321165540389 terminating
081111 092112 25323 INFO dfs.DataNode$PacketResponder: Received block blk_4534374321165540389 of size 67108864 from /10.251.29.239
081111 092112 25407 INFO dfs.DataNode$PacketResponder: PacketResponder 0 for block blk_4534374321165540389 terminating
081111 092112 25407 INFO dfs.DataNode$PacketResponder: Received block blk_4534374321165540389 of size 67108864 from /10.250.9.207
081111 092112 27 INFO dfs.FSNamesystem: BLOCK* NameSystem.addStoredBlock: blockMap updated: 10.250.9.207:50010 is added to blk_4534374321165540389 size 67108864
081111 092112 29 INFO dfs.FSNamesystem: BLOCK* NameSystem.addStoredBlock: blockMap updated: 10.250.15.240:50010 is added to blk_4534374321165540389 size 67108864
081111 092112 33 INFO dfs.FSNamesystem: BLOCK* NameSystem.addStoredBlock: blockMap updated: 10.251.29.239:50010 is added to blk_4534374321165540389 size 67108864
081111 092143 22787 INFO dfs.DataNode$PacketResponder: PacketResponder 1 for block blk_604178945649099933 terminating
081111 092143 22787 INFO dfs.DataNode$PacketResponder: Received block blk_604178945649099933 of size 67108864 from /10.250.7.146
081111 092143 25237 INFO dfs.DataNode$PacketResponder: PacketResponder 0 for block blk_604178945649099933 terminating
081111 092143 25237 INFO dfs.DataNode$PacketResponder: Received block blk_604178945649099933 of size 67108864 from /10.251.107.50
081111 092143 25254 INFO dfs.DataNode$PacketResponder: PacketResponder 2 for block blk_604178945649099933 terminating
081111 092143 25254 INFO dfs.DataNode$PacketResponder: Received block blk_604178945649099933 of size 67108864 from /10.250.7.146
081111 092143 28 INFO dfs.FSNamesystem: BLOCK* NameSystem.addStoredBlock: blockMap updated: 10.250.7.146:50010 is added to blk_604178945649099933 size 67108864
081111 092143 31 INFO dfs.FSNamesystem: BLOCK* NameSystem.addStoredBlock: blockMap updated: 10.251.73.220:50010 is added to blk_604178945649099933 size 67108864
081111 092143 33 INFO dfs.FSNamesystem: BLOCK* NameSystem.addStoredBlock: blockMap updated: 10.251.107.50:50010 is added to blk_604178945649099933 size 67108864
081111 092600 27 INFO dfs.FSNamesystem: BLOCK* NameSystem.allocateBlock: /user/root/rand8/_temporary/_task_200811101024_0015_m_000885_0/part-00885. blk_-332401920528308023
081111 092601 25406 INFO dfs.DataNode$DataXceiver: Receiving block blk_-332401920528308023 src: /10.251.105.189:38435 dest: /10.251.105.189:50010
081111 092601 25536 INFO dfs.DataNode$DataXceiver: Receiving block blk_-332401920528308023 src: /10.251.105.189:51893 dest: /10.251.105.189:50010
081111 092601 25696 INFO dfs.DataNode$DataXceiver: Receiving block blk_-332401920528308023 src: /10.251.74.79:56889 dest: /10.251.74.79:50010
081111 092647 25407 INFO dfs.DataNode$PacketResponder: PacketResponder 1 for block blk_-332401920528308023 terminating
081111 092647 25407 INFO dfs.DataNode$PacketResponder: Received block blk_-332401920528308023 of size 67108864 from /10.251.105.189
081111 092647 25697 INFO dfs.DataNode$PacketResponder: PacketResponder 0 for block blk_-332401920528308023 terminating
081111 092647 25697 INFO dfs.DataNode$PacketResponder: Received block blk_-332401920528308023 of size 67108864 from /10.251.74.79
081111 092647 30 INFO dfs.FSNamesystem: BLOCK* NameSystem.addStoredBlock: blockMap updated: 10.251.75.79:50010 is added to blk_-332401920528308023 size 67108864
081111 092647 32 INFO dfs.FSNamesystem: BLOCK* NameSystem.addStoredBlock: blockMap updated: 10.251.74.79:50010 is added to blk_-332401920528308023 size 67108864
081111 092647 34 INFO dfs.FSNamesystem: BLOCK* NameSystem.addStoredBlock: blockMap updated: 10.251.105.189:50010 is added to blk_-332401920528308023 size 67108864
081111 092648 25537 INFO dfs.DataNode$PacketResponder: PacketResponder 2 for block blk_-332401920528308023 terminating
081111 092648 25537 INFO dfs.DataNode$PacketResponder: Received block blk_-332401920528308023 of size 67108864 from /10.251.105.189
081111 093231 25523 INFO dfs.DataNode$DataXceiver: Receiving block blk_-645988338155674237 src: /10.251.74.79:59732 dest: /10.251.74.79:50010
081111 093231 30 INFO dfs.FSNamesystem: BLOCK* NameSystem.allocateBlock: /user/root/rand8/_temporary/_task_200811101024_0015_m_001122_0/part-01122. blk_-645988338155674237
081111 093234 12976 INFO dfs.DataNode$DataXceiver: Receiving block blk_-645988338155674237 src: /10.251.42.207:59944 dest: /10.251.42.207:50010
081111 093234 25618 INFO dfs.DataNode$DataXceiver: Receiving block blk_-645988338155674237 src: /10.251.74.79:55369 dest: /10.251.74.79:50010
081111 093304 12977 INFO dfs.DataNode$PacketResponder: PacketResponder 0 for block blk_-645988338155674237 terminating
081111 093304 12977 INFO dfs.DataNode$PacketResponder: Received block blk_-645988338155674237 of size 67108864 from /10.251.42.207
081111 093304 25524 INFO dfs.DataNode$PacketResponder: PacketResponder 2 for block blk_-645988338155674237 terminating
081111 093304 25524 INFO dfs.DataNode$PacketResponder: Received block blk_-645988338155674237 of size 67108864 from /10.251.74.79
081111 093304 25619 INFO dfs.DataNode$PacketResponder: PacketResponder 1 for block blk_-645988338155674237 terminating
081111 093304 25619 INFO dfs.DataNode$PacketResponder: Received block blk_-645988338155674237 of size 67108864 from /10.251.74.79
081111 093304 26 INFO dfs.FSNamesystem: BLOCK* NameSystem.addStoredBlock: blockMap updated: 10.251.42.207:50010 is added to blk_-645988338155674237 size 67108864
081111 093304 27 INFO dfs.FSNamesystem: BLOCK* NameSystem.addStoredBlock: blockMap updated: 10.251.74.79:50010 is added to blk_-645988338155674237 size 67108864
081111 093304 33 INFO dfs.FSNamesystem: BLOCK* NameSystem.addStoredBlock: blockMap updated: 10.251.30.85:50010 is added to blk_-645988338155674237 size 67108864
081111 093727 25542 INFO dfs.DataNode$DataXceiver: Receiving block blk_-986991289695876760 src: /10.251.39.192:52214 dest: /10.251.39.192:50010
081111 093727 25704 INFO dfs.DataNode$DataXceiver: Receiving block blk_-986991289695876760 src: /10.251.37.240:54692 dest: /10.251.37.240:50010
081111 093727 25762 INFO dfs.DataNode$DataXceiver: Receiving block blk_-986991289695876760 src: /10.251.39.192:54584 dest: /10.251.39.192:50010
081111 093727 26 INFO dfs.FSNamesystem: BLOCK* NameSystem.allocateBlock: /user/root/rand8/_temporary/_task_200811101024_0015_m_001240_0/part-01240. blk_-986991289695876760
081111 093759 25543 INFO dfs.DataNode$PacketResponder: PacketResponder 2 for block blk_-986991289695876760 terminating
081111 093759 25543 INFO dfs.DataNode$PacketResponder: Received block blk_-986991289695876760 of size 67108864 from /10.251.39.192
081111 093759 25705 INFO dfs.DataNode$PacketResponder: PacketResponder 0 for block blk_-986991289695876760 terminating
081111 093759 25705 INFO dfs.DataNode$PacketResponder: Received block blk_-986991289695876760 of size 67108864 from /10.251.37.240
081111 093759 25763 INFO dfs.DataNode$PacketResponder: PacketResponder 1 for block blk_-986991289695876760 terminating
081111 093759 25763 INFO dfs.DataNode$PacketResponder: Received block blk_-986991289695876760 of size 67108864 from /10.251.39.192
081111 093759 27 INFO dfs.FSNamesystem: BLOCK* NameSystem.addStoredBlock: blockMap updated: 10.251.90.239:50010 is added to blk_-986991289695876760 size 67108864
081111 093759 29 INFO dfs.FSNamesystem: BLOCK* NameSystem.addStoredBlock: blockMap updated: 10.251.37.240:50010 is added to blk_-986991289695876760 size 67108864
081111 093759 33 INFO dfs.FSNamesystem: BLOCK* NameSystem.addStoredBlock: blockMap updated: 10.251.39.192:50010 is added to blk_-986991289695876760 size 67108864
081111 094534 25694 INFO dfs.DataNode$DataXceiver: Receiving block blk_-4310833901741549813 src: /10.251.35.1:42918 dest: /10.251.35.1:50010
081111 094534 32 INFO dfs.FSNamesystem: BLOCK* NameSystem.allocateBlock: /user/root/rand8/_temporary/_task_200811101024_0015_m_001507_0/part-01507. blk_-4310833901741549813
081111 094537 25751 INFO dfs.DataNode$DataXceiver: Receiving block blk_-4310833901741549813 src: /10.251.35.1:59060 dest: /10.251.35.1:50010
081111 094537 25922 INFO dfs.DataNode$DataXceiver: Receiving block blk_-4310833901741549813 src: /10.251.90.134:47200 dest: /10.251.90.134:50010
081111 094631 25695 INFO dfs.DataNode$PacketResponder: PacketResponder 2 for block blk_-4310833901741549813 terminating
081111 094631 25695 INFO dfs.DataNode$PacketResponder: Received block blk_-4310833901741549813 of size 67108864 from /10.251.35.1
081111 094631 25753 INFO dfs.DataNode$PacketResponder: PacketResponder 1 for block blk_-4310833901741549813 terminating
081111 094631 25753 INFO dfs.DataNode$PacketResponder: Received block blk_-4310833901741549813 of size 67108864 from /10.251.35.1
081111 094631 25923 INFO dfs.DataNode$PacketResponder: PacketResponder 0 for block blk_-4310833901741549813 terminating
081111 094631 25923 INFO dfs.DataNode$PacketResponder: Received block blk_-4310833901741549813 of size 67108864 from /10.251.90.134
081111 094631 32 INFO dfs.FSNamesystem: BLOCK* NameSystem.addStoredBlock: blockMap updated: 10.251.90.134:50010 is added to blk_-4310833901741549813 size 67108864
081111 094631 33 INFO dfs.FSNamesystem: BLOCK* NameSystem.addStoredBlock: blockMap updated: 10.251.35.1:50010 is added to blk_-4310833901741549813 size 67108864
081111 094631 35 INFO dfs.FSNamesystem: BLOCK* NameSystem.addStoredBlock: blockMap updated: 10.250.11.100:50010 is added to blk_-4310833901741549813 size 67108864
081111 095653 26282 INFO dfs.DataNode$DataXceiver: Receiving block blk_1902401933616001199 src: /10.251.106.37:39563 dest: /10.251.106.37:50010
081111 095653 32 INFO dfs.FSNamesystem: BLOCK* NameSystem.allocateBlock: /user/root/rand8/_temporary/_task_200811101024_0015_m_001961_0/part-01961. blk_1902401933616001199
081111 095654 25960 INFO dfs.DataNode$DataXceiver: Receiving block blk_1902401933616001199 src: /10.251.106.37:43612 dest: /10.251.106.37:50010
081111 095654 26082 INFO dfs.DataNode$DataXceiver: Receiving block blk_1902401933616001199 src: /10.251.73.220:56982 dest: /10.251.73.220:50010
081111 095729 25961 INFO dfs.DataNode$PacketResponder: PacketResponder 1 for block blk_1902401933616001199 terminating
081111 095729 25961 INFO dfs.DataNode$PacketResponder: Received block blk_1902401933616001199 of size 67108864 from /10.251.106.37
081111 095729 26083 INFO dfs.DataNode$PacketResponder: PacketResponder 0 for block blk_1902401933616001199 terminating
081111 095729 26083 INFO dfs.DataNode$PacketResponder: Received block blk_1902401933616001199 of size 67108864 from /10.251.73.220
081111 095729 26284 INFO dfs.DataNode$PacketResponder: PacketResponder 2 for block blk_1902401933616001199 terminating
081111 095729 26284 INFO dfs.DataNode$PacketResponder: Received block blk_1902401933616001199 of size 67108864 from /10.251.106.37
081111 095729 26 INFO dfs.FSNamesystem: BLOCK* NameSystem.addStoredBlock: blockMap updated: 10.250.7.32:50010 is added to blk_1902401933616001199 size 67108864
081111 095729 30 INFO dfs.FSNamesystem: BLOCK* NameSystem.addStoredBlock: blockMap updated: 10.251.73.220:50010 is added to blk_1902401933616001199 size 67108864
081111 095730 33 INFO dfs.FSNamesystem: BLOCK* NameSystem.addStoredBlock: blockMap updated: 10.251.106.37:50010 is added to blk_1902401933616001199 size 67108864
081111 100316 26206 INFO dfs.DataNode$DataXceiver: Receiving block blk_-2511486179633322869 src: /10.251.67.211:51039 dest: /10.251.67.211:50010
081111 100316 26273 INFO dfs.DataNode$DataXceiver: Receiving block blk_-2511486179633322869 src: /10.251.107.196:34050 dest: /10.251.107.196:50010
081111 100316 26409 INFO dfs.DataNode$DataXceiver: Receiving block blk_-2511486179633322869 src: /10.251.107.196:46324 dest: /10.251.107.196:50010
081111 100316 31 INFO dfs.FSNamesystem: BLOCK* NameSystem.allocateBlock: /user/root/randtxt9/_temporary/_task_200811101024_0016_m_000057_0/part-00057. blk_-2511486179633322869
081111 100350 26207 INFO dfs.DataNode$PacketResponder: PacketResponder 0 for block blk_-2511486179633322869 terminating
081111 100350 26207 INFO dfs.DataNode$PacketResponder: Received block blk_-2511486179633322869 of size 67108864 from /10.251.67.211
081111 100350 26274 INFO dfs.DataNode$PacketResponder: PacketResponder 2 for block blk_-2511486179633322869 terminating
081111 100350 26274 INFO dfs.DataNode$PacketResponder: Received block blk_-2511486179633322869 of size 67108864 from /10.251.107.196
081111 100350 26410 INFO dfs.DataNode$PacketResponder: PacketResponder 1 for block blk_-2511486179633322869 terminating
081111 100350 26410 INFO dfs.DataNode$PacketResponder: Received block blk_-2511486179633322869 of size 67108864 from /10.251.107.196
081111 100350 34 INFO dfs.FSNamesystem: BLOCK* NameSystem.addStoredBlock: blockMap updated: 10.251.107.196:50010 is added to blk_-2511486179633322869 size 67108864
081111 100350 34 INFO dfs.FSNamesystem: BLOCK* NameSystem.addStoredBlock: blockMap updated: 10.251.66.102:50010 is added to blk_-2511486179633322869 size 67108864
081111 100350 35 INFO dfs.FSNamesystem: BLOCK* NameSystem.addStoredBlock: blockMap updated: 10.251.67.211:50010 is added to blk_-2511486179633322869 size 67108864
081111 100649 31 INFO dfs.FSNamesystem: BLOCK* NameSystem.allocateBlock: /user/root/randtxt9/_temporary/_task_200811101024_0016_m_000381_0/part-00381. blk_1740025246370507671
081111 100650 26014 INFO dfs.DataNode$DataXceiver: Receiving block blk_1740025246370507671 src: /10.251.214.225:33470 dest: /10.251.214.225:50010
081111 100650 26320 INFO dfs.DataNode$DataXceiver: Receiving block blk_1740025246370507671 src: /10.251.214.225:49110 dest: /10.251.214.225:50010
081111 100651 26279 INFO dfs.DataNode$DataXceiver: Receiving block blk_1740025246370507671 src: /10.251.215.16:42362 dest: /10.251.215.16:50010
081111 100732 26280 INFO dfs.DataNode$PacketResponder: PacketResponder 0 for block blk_1740025246370507671 terminating
081111 100732 26280 INFO dfs.DataNode$PacketResponder: Received block blk_1740025246370507671 of size 67108864 from /10.251.215.16
081111 100732 26321 INFO dfs.DataNode$PacketResponder: PacketResponder 1 for block blk_1740025246370507671 terminating
081111 100732 26321 INFO dfs.DataNode$PacketResponder: Received block blk_1740025246370507671 of size 67108864 from /10.251.214.225
081111 100732 28 INFO dfs.FSNamesystem: BLOCK* NameSystem.addStoredBlock: blockMap updated: 10.251.215.70:50010 is added to blk_1740025246370507671 size 67108864
081111 100733 26015 INFO dfs.DataNode$PacketResponder: PacketResponder 2 for block blk_1740025246370507671 terminating
081111 100733 26015 INFO dfs.DataNode$PacketResponder: Received block blk_1740025246370507671 of size 67108864 from /10.251.214.225
081111 100733 32 INFO dfs.FSNamesystem: BLOCK* NameSystem.addStoredBlock: blockMap updated: 10.251.215.16:50010 is added to blk_1740025246370507671 size 67108864
081111 100733 35 INFO dfs.FSNamesystem: BLOCK* NameSystem.addStoredBlock: blockMap updated: 10.251.214.225:50010 is added to blk_1740025246370507671 size 67108864
081111 102227 21056 INFO dfs.DataNode$DataXceiver: Receiving block blk_7580158928547317691 src: /10.250.7.230:35602 dest: /10.250.7.230:50010
081111 102227 26600 INFO dfs.DataNode$DataXceiver: Receiving block blk_7580158928547317691 src: /10.251.43.147:60177 dest: /10.251.43.147:50010
081111 102227 26714 INFO dfs.DataNode$DataXceiver: Receiving block blk_7580158928547317691 src: /10.251.43.147:43958 dest: /10.251.43.147:50010
081111 102227 33 INFO dfs.FSNamesystem: BLOCK* NameSystem.allocateBlock: /user/root/randtxt9/_temporary/_task_200811101024_0016_m_000569_0/part-00569. blk_7580158928547317691
081111 102324 26140 INFO dfs.DataNode$DataXceiver: Receiving block blk_7741499173520363205 src: /10.251.202.181:39534 dest: /10.251.202.181:50010
081111 102324 26795 INFO dfs.DataNode$DataXceiver: Receiving block blk_7741499173520363205 src: /10.251.202.181:42742 dest: /10.251.202.181:50010
081111 102324 28 INFO dfs.FSNamesystem: BLOCK* NameSystem.allocateBlock: /user/root/randtxt9/_temporary/_task_200811101024_0016_m_000757_0/part-00757. blk_7741499173520363205
081111 102325 26649 INFO dfs.DataNode$DataXceiver: Receiving block blk_7741499173520363205 src: /10.251.110.68:41589 dest: /10.251.110.68:50010
081111 102408 26650 INFO dfs.DataNode$PacketResponder: PacketResponder 0 for block blk_7741499173520363205 terminating
081111 102408 26650 INFO dfs.DataNode$PacketResponder: Received block blk_7741499173520363205 of size 67108864 from /10.251.110.68
081111 102408 28 INFO dfs.FSNamesystem: BLOCK* NameSystem.addStoredBlock: blockMap updated: 10.250.10.223:50010 is added to blk_7741499173520363205 size 67108864
081111 102409 26796 INFO dfs.DataNode$PacketResponder: PacketResponder 1 for block blk_7741499173520363205 terminating
081111 102409 26796 INFO dfs.DataNode$PacketResponder: Received block blk_7741499173520363205 of size 67108864 from /10.251.202.181
081111 102409 28 INFO dfs.FSNamesystem: BLOCK* NameSystem.addStoredBlock: blockMap updated: 10.251.110.68:50010 is added to blk_7741499173520363205 size 67108864
081111 102410 26142 INFO dfs.DataNode$PacketResponder: PacketResponder 2 for block blk_7741499173520363205 terminating
081111 102410 26142 INFO dfs.DataNode$PacketResponder: Received block blk_7741499173520363205 of size 67108864 from /10.251.202.181
081111 102410 32 INFO dfs.FSNamesystem: BLOCK* NameSystem.addStoredBlock: blockMap updated: 10.251.202.181:50010 is added to blk_7741499173520363205 size 67108864
081111 102411 21057 INFO dfs.DataNode$PacketResponder: PacketResponder 0 for block blk_7580158928547317691 terminating
081111 102411 21057 INFO dfs.DataNode$PacketResponder: Received block blk_7580158928547317691 of size 67108864 from /10.250.7.230
081111 102411 26601 INFO dfs.DataNode$PacketResponder: PacketResponder 2 for block blk_7580158928547317691 terminating
081111 102411 26601 INFO dfs.DataNode$PacketResponder: Received block blk_7580158928547317691 of size 67108864 from /10.251.43.147
081111 102411 26717 INFO dfs.DataNode$PacketResponder: PacketResponder 1 for block blk_7580158928547317691 terminating
081111 102411 26717 INFO dfs.DataNode$PacketResponder: Received block blk_7580158928547317691 of size 67108864 from /10.251.43.147
081111 102411 29 INFO dfs.FSNamesystem: BLOCK* NameSystem.addStoredBlock: blockMap updated: 10.251.123.33:50010 is added to blk_7580158928547317691 size 67108864
081111 102411 30 INFO dfs.FSNamesystem: BLOCK* NameSystem.addStoredBlock: blockMap updated: 10.251.43.147:50010 is added to blk_7580158928547317691 size 67108864
081111 102411 32 INFO dfs.FSNamesystem: BLOCK* NameSystem.addStoredBlock: blockMap updated: 10.250.7.230:50010 is added to blk_7580158928547317691 size 67108864
081111 103010 26800 INFO dfs.DataNode$DataXceiver: Receiving block blk_4299514267779890807 src: /10.251.43.115:47553 dest: /10.251.43.115:50010
081111 103010 33 INFO dfs.FSNamesystem: BLOCK* NameSystem.allocateBlock: /user/root/randtxt9/_temporary/_task_200811101024_0016_m_001152_0/part-01152. blk_4299514267779890807
081111 103011 26149 INFO dfs.DataNode$DataXceiver: Receiving block blk_4299514267779890807 src: /10.251.43.115:52545 dest: /10.251.43.115:50010
081111 103011 26927 INFO dfs.DataNode$DataXceiver: Receiving block blk_4299514267779890807 src: /10.251.203.129:36752 dest: /10.251.203.129:50010
081111 103049 26151 INFO dfs.DataNode$PacketResponder: PacketResponder 1 for block blk_4299514267779890807 terminating
081111 103049 26151 INFO dfs.DataNode$PacketResponder: Received block blk_4299514267779890807 of size 67108864 from /10.251.43.115
081111 103049 26801 INFO dfs.DataNode$PacketResponder: PacketResponder 2 for block blk_4299514267779890807 terminating
081111 103049 26801 INFO dfs.DataNode$PacketResponder: Received block blk_4299514267779890807 of size 67108864 from /10.251.43.115
081111 103049 26928 INFO dfs.DataNode$PacketResponder: PacketResponder 0 for block blk_4299514267779890807 terminating
081111 103049 26928 INFO dfs.DataNode$PacketResponder: Received block blk_4299514267779890807 of size 67108864 from /10.251.203.129
081111 103049 27 INFO dfs.FSNamesystem: BLOCK* NameSystem.addStoredBlock: blockMap updated: 10.251.203.129:50010 is added to blk_4299514267779890807 size 67108864
081111 103049 29 INFO dfs.FSNamesystem: BLOCK* NameSystem.addStoredBlock: blockMap updated: 10.251.43.115:50010 is added to blk_4299514267779890807 size 67108864
081111 103049 34 INFO dfs.FSNamesystem: BLOCK* NameSystem.addStoredBlock: blockMap updated: 10.251.71.240:50010 is added to blk_4299514267779890807 size 67108864
081111 103314 26436 INFO dfs.DataNode$DataXceiver: Receiving block blk_1686014489111679521 src: /10.250.6.4:53167 dest: /10.250.6.4:50010
081111 103314 26473 INFO dfs.DataNode$DataXceiver: Receiving block blk_1686014489111679521 src: /10.250.14.224:60766 dest: /10.250.14.224:50010
081111 103314 26824 INFO dfs.DataNode$DataXceiver: Receiving block blk_1686014489111679521 src: /10.250.6.4:34881 dest: /10.250.6.4:50010
081111 103314 27 INFO dfs.FSNamesystem: BLOCK* NameSystem.allocateBlock: /user/root/randtxt9/_temporary/_task_200811101024_0016_m_000837_0/part-00837. blk_1686014489111679521
081111 103347 26741 INFO dfs.DataNode$DataXceiver: Receiving block blk_5551394867069625048 src: /10.250.10.6:40366 dest: /10.250.10.6:50010
081111 103347 27002 INFO dfs.DataNode$DataXceiver: Receiving block blk_5551394867069625048 src: /10.250.10.6:52765 dest: /10.250.10.6:50010
081111 103347 27128 INFO dfs.DataNode$DataXceiver: Receiving block blk_5551394867069625048 src: /10.251.110.68:46374 dest: /10.251.110.68:50010
081111 103347 27 INFO dfs.FSNamesystem: BLOCK* NameSystem.allocateBlock: /user/root/randtxt9/_temporary/_task_200811101024_0016_m_001189_0/part-01189. blk_5551394867069625048
081111 103354 26437 INFO dfs.DataNode$PacketResponder: PacketResponder 1 for block blk_1686014489111679521 terminating
081111 103354 26437 INFO dfs.DataNode$PacketResponder: Received block blk_1686014489111679521 of size 67108864 from /10.250.6.4
081111 103354 26474 INFO dfs.DataNode$PacketResponder: PacketResponder 0 for block blk_1686014489111679521 terminating
081111 103354 26474 INFO dfs.DataNode$PacketResponder: Received block blk_1686014489111679521 of size 67108864 from /10.250.14.224
081111 103354 26825 INFO dfs.DataNode$PacketResponder: PacketResponder 2 for block blk_1686014489111679521 terminating
081111 103354 26825 INFO dfs.DataNode$PacketResponder: Received block blk_1686014489111679521 of size 67108864 from /10.250.6.4
081111 103354 29 INFO dfs.FSNamesystem: BLOCK* NameSystem.addStoredBlock: blockMap updated: 10.251.202.134:50010 is added to blk_1686014489111679521 size 67108864
081111 103354 30 INFO dfs.FSNamesystem: BLOCK* NameSystem.addStoredBlock: blockMap updated: 10.250.6.4:50010 is added to blk_1686014489111679521 size 67108864
081111 103354 33 INFO dfs.FSNamesystem: BLOCK* NameSystem.addStoredBlock: blockMap updated: 10.250.14.224:50010 is added to blk_1686014489111679521 size 67108864
081111 103419 26742 INFO dfs.DataNode$PacketResponder: PacketResponder 2 for block blk_5551394867069625048 terminating
081111 103419 26742 INFO dfs.DataNode$PacketResponder: Received block blk_5551394867069625048 of size 67108864 from /10.250.10.6
081111 103419 27003 INFO dfs.DataNode$PacketResponder: PacketResponder 1 for block blk_5551394867069625048 terminating
081111 103419 27003 INFO dfs.DataNode$PacketResponder: Received block blk_5551394867069625048 of size 67108864 from /10.250.10.6
081111 103419 27129 INFO dfs.DataNode$PacketResponder: PacketResponder 0 for block blk_5551394867069625048 terminating
081111 103419 27129 INFO dfs.DataNode$PacketResponder: Received block blk_5551394867069625048 of size 67108864 from /10.251.110.68
081111 103419 28 INFO dfs.FSNamesystem: BLOCK* NameSystem.addStoredBlock: blockMap updated: 10.251.66.3:50010 is added to blk_5551394867069625048 size 67108864
081111 103419 34 INFO dfs.FSNamesystem: BLOCK* NameSystem.addStoredBlock: blockMap updated: 10.251.110.68:50010 is added to blk_5551394867069625048 size 67108864
081111 103419 35 INFO dfs.FSNamesystem: BLOCK* NameSystem.addStoredBlock: blockMap updated: 10.250.10.6:50010 is added to blk_5551394867069625048 size 67108864
081111 103543 26439 INFO dfs.DataNode$DataXceiver: Receiving block blk_-4748113038461927264 src: /10.251.70.37:40802 dest: /10.251.70.37:50010
081111 103543 26912 INFO dfs.DataNode$DataXceiver: Receiving block blk_-4748113038461927264 src: /10.251.70.37:55357 dest: /10.251.70.37:50010
081111 103543 26945 INFO dfs.DataNode$DataXceiver: Receiving block blk_-4748113038461927264 src: /10.251.202.209:43878 dest: /10.251.202.209:50010
081111 103543 31 INFO dfs.FSNamesystem: BLOCK* NameSystem.allocateBlock: /user/root/randtxt9/_temporary/_task_200811101024_0016_m_001391_0/part-01391. blk_-4748113038461927264
081111 103630 26442 INFO dfs.DataNode$PacketResponder: PacketResponder 1 for block blk_-4748113038461927264 terminating
081111 103630 26442 INFO dfs.DataNode$PacketResponder: Received block blk_-4748113038461927264 of size 67108864 from /10.251.70.37
081111 103630 26913 INFO dfs.DataNode$PacketResponder: PacketResponder 2 for block blk_-4748113038461927264 terminating
081111 103630 26913 INFO dfs.DataNode$PacketResponder: Received block blk_-4748113038461927264 of size 67108864 from /10.251.70.37
081111 103630 26946 INFO dfs.DataNode$PacketResponder: PacketResponder 0 for block blk_-4748113038461927264 terminating
081111 103630 26946 INFO dfs.DataNode$PacketResponder: Received block blk_-4748113038461927264 of size 67108864 from /10.251.202.209
081111 103630 27 INFO dfs.FSNamesystem: BLOCK* NameSystem.addStoredBlock: blockMap updated: 10.251.202.209:50010 is added to blk_-4748113038461927264 size 67108864
081111 103630 28 INFO dfs.FSNamesystem: BLOCK* NameSystem.addStoredBlock: blockMap updated: 10.251.70.37:50010 is added to blk_-4748113038461927264 size 67108864
081111 103630 32 INFO dfs.FSNamesystem: BLOCK* NameSystem.addStoredBlock: blockMap updated: 10.251.70.112:50010 is added to blk_-4748113038461927264 size 67108864
081111 104320 26468 INFO dfs.DataNode$DataXceiver: Receiving block blk_-4387382232011504138 src: /10.251.39.242:54444 dest: /10.251.39.242:50010
081111 104320 27175 INFO dfs.DataNode$DataXceiver: Receiving block blk_-4387382232011504138 src: /10.251.91.15:32924 dest: /10.251.91.15:50010
081111 104320 27210 INFO dfs.DataNode$DataXceiver: Receiving block blk_-4387382232011504138 src: /10.251.91.15:50664 dest: /10.251.91.15:50010
081111 104320 29 INFO dfs.FSNamesystem: BLOCK* NameSystem.allocateBlock: /user/root/randtxt9/_temporary/_task_200811101024_0016_m_001511_0/part-01511. blk_-4387382232011504138
081111 104352 26471 INFO dfs.DataNode$PacketResponder: PacketResponder 0 for block blk_-4387382232011504138 terminating
081111 104352 26471 INFO dfs.DataNode$PacketResponder: Received block blk_-4387382232011504138 of size 67108864 from /10.251.39.242
081111 104352 26 INFO dfs.FSNamesystem: BLOCK* NameSystem.addStoredBlock: blockMap updated: 10.251.39.242:50010 is added to blk_-4387382232011504138 size 67108864
081111 104352 26 INFO dfs.FSNamesystem: BLOCK* NameSystem.addStoredBlock: blockMap updated: 10.251.91.15:50010 is added to blk_-4387382232011504138 size 67108864
081111 104352 27177 INFO dfs.DataNode$PacketResponder: PacketResponder 2 for block blk_-4387382232011504138 terminating
081111 104352 27177 INFO dfs.DataNode$PacketResponder: Received block blk_-4387382232011504138 of size 67108864 from /10.251.91.15
081111 104352 27211 INFO dfs.DataNode$PacketResponder: PacketResponder 1 for block blk_-4387382232011504138 terminating
081111 104352 27211 INFO dfs.DataNode$PacketResponder: Received block blk_-4387382232011504138 of size 67108864 from /10.251.91.15
081111 104352 33 INFO dfs.FSNamesystem: BLOCK* NameSystem.addStoredBlock: blockMap updated: 10.251.203.80:50010 is added to blk_-4387382232011504138 size 67108864
081111 104520 27226 INFO dfs.DataNode$DataXceiver: Receiving block blk_3862581703853133073 src: /10.251.90.81:38087 dest: /10.251.90.81:50010
081111 104521 27019 INFO dfs.DataNode$DataXceiver: Receiving block blk_3862581703853133073 src: /10.251.107.196:47796 dest: /10.251.107.196:50010
081111 104521 27106 INFO dfs.DataNode$DataXceiver: Receiving block blk_3862581703853133073 src: /10.251.90.81:46519 dest: /10.251.90.81:50010
081111 104521 31 INFO dfs.FSNamesystem: BLOCK* NameSystem.allocateBlock: /user/root/randtxt9/_temporary/_task_200811101024_0016_m_001313_0/part-01313. blk_3862581703853133073
081111 104608 27020 INFO dfs.DataNode$PacketResponder: PacketResponder 0 for block blk_3862581703853133073 terminating
081111 104608 27020 INFO dfs.DataNode$PacketResponder: Received block blk_3862581703853133073 of size 67108864 from /10.251.107.196
081111 104608 27109 INFO dfs.DataNode$PacketResponder: PacketResponder 1 for block blk_3862581703853133073 terminating
081111 104608 27109 INFO dfs.DataNode$PacketResponder: Received block blk_3862581703853133073 of size 67108864 from /10.251.90.81
081111 104609 26 INFO dfs.FSNamesystem: BLOCK* NameSystem.addStoredBlock: blockMap updated: 10.251.90.81:50010 is added to blk_3862581703853133073 size 67108864
081111 104609 27227 INFO dfs.DataNode$PacketResponder: PacketResponder 2 for block blk_3862581703853133073 terminating
081111 104609 27227 INFO dfs.DataNode$PacketResponder: Received block blk_3862581703853133073 of size 67108864 from /10.251.90.81
081111 104609 28 INFO dfs.FSNamesystem: BLOCK* NameSystem.addStoredBlock: blockMap updated: 10.251.66.192:50010 is added to blk_3862581703853133073 size 67108864
081111 104609 35 INFO dfs.FSNamesystem: BLOCK* NameSystem.addStoredBlock: blockMap updated: 10.251.107.196:50010 is added to blk_3862581703853133073 size 67108864
081111 105917 26873 INFO dfs.DataNode$DataXceiver: Receiving block blk_-4422008639067555175 src: /10.251.75.228:38562 dest: /10.251.75.228:50010
081111 105917 27266 INFO dfs.DataNode$DataXceiver: Receiving block blk_-4422008639067555175 src: /10.251.66.63:41490 dest: /10.251.66.63:50010
081111 105917 27283 INFO dfs.DataNode$DataXceiver: Receiving block blk_-4422008639067555175 src: /10.251.75.228:52232 dest: /10.251.75.228:50010
081111 105917 34 INFO dfs.FSNamesystem: BLOCK* NameSystem.allocateBlock: /user/root/randtxt9/_temporary/_task_200811101024_0016_m_001825_0/part-01825. blk_-4422008639067555175
081111 105946 26874 INFO dfs.DataNode$PacketResponder: PacketResponder 2 for block blk_-4422008639067555175 terminating
081111 105946 26874 INFO dfs.DataNode$PacketResponder: Received block blk_-4422008639067555175 of size 67108864 from /10.251.75.228
081111 105946 27267 INFO dfs.DataNode$PacketResponder: PacketResponder 0 for block blk_-4422008639067555175 terminating
081111 105946 27267 INFO dfs.DataNode$PacketResponder: Received block blk_-4422008639067555175 of size 67108864 from /10.251.66.63
081111 105946 27284 INFO dfs.DataNode$PacketResponder: PacketResponder 1 for block blk_-4422008639067555175 terminating
081111 105946 27284 INFO dfs.DataNode$PacketResponder: Received block blk_-4422008639067555175 of size 67108864 from /10.251.75.228
081111 105946 31 INFO dfs.FSNamesystem: BLOCK* NameSystem.addStoredBlock: blockMap updated: 10.251.66.63:50010 is added to blk_-4422008639067555175 size 67108864
081111 105946 33 INFO dfs.FSNamesystem: BLOCK* NameSystem.addStoredBlock: blockMap updated: 10.251.31.160:50010 is added to blk_-4422008639067555175 size 67108864
081111 105946 34 INFO dfs.FSNamesystem: BLOCK* NameSystem.addStoredBlock: blockMap updated: 10.251.75.228:50010 is added to blk_-4422008639067555175 size 67108864
081111 110034 27278 INFO dfs.DataNode$DataXceiver: Receiving block blk_-4018519499827896254 src: /10.251.29.239:56783 dest: /10.251.29.239:50010
081111 110034 27377 INFO dfs.DataNode$DataXceiver: Receiving block blk_-4018519499827896254 src: /10.251.29.239:53130 dest: /10.251.29.239:50010
081111 110034 27456 INFO dfs.DataNode$DataXceiver: Receiving block blk_-4018519499827896254 src: /10.251.42.246:38544 dest: /10.251.42.246:50010
081111 110034 31 INFO dfs.FSNamesystem: BLOCK* NameSystem.allocateBlock: /user/root/randtxt9/_temporary/_task_200811101024_0016_m_002010_0/part-02010. blk_-4018519499827896254
081111 110050 27279 INFO dfs.DataNode$PacketResponder: Received block blk_-4018519499827896254 of size 67108864 from /10.251.29.239
081111 110050 27457 INFO dfs.DataNode$PacketResponder: PacketResponder 0 for block blk_-4018519499827896254 terminating
081111 110050 27457 INFO dfs.DataNode$PacketResponder: Received block blk_-4018519499827896254 of size 67108864 from /10.251.42.246
081111 110051 27279 INFO dfs.DataNode$PacketResponder: PacketResponder 2 for block blk_-4018519499827896254 terminating
081111 110051 27378 INFO dfs.DataNode$PacketResponder: PacketResponder 1 for block blk_-4018519499827896254 terminating
081111 110051 27378 INFO dfs.DataNode$PacketResponder: Received block blk_-4018519499827896254 of size 67108864 from /10.251.29.239
081111 110051 27 INFO dfs.FSNamesystem: BLOCK* NameSystem.addStoredBlock: blockMap updated: 10.251.42.246:50010 is added to blk_-4018519499827896254 size 67108864
081111 110051 29 INFO dfs.FSNamesystem: BLOCK* NameSystem.addStoredBlock: blockMap updated: 10.251.29.239:50010 is added to blk_-4018519499827896254 size 67108864
081111 110051 33 INFO dfs.FSNamesystem: BLOCK* NameSystem.addStoredBlock: blockMap updated: 10.250.13.240:50010 is added to blk_-4018519499827896254 size 67108864
081111 110425 26 INFO dfs.FSNamesystem: BLOCK* NameSystem.delete: blk_-2511486179633322869 is added to invalidSet of 10.251.107.196:50010
081111 110425 26 INFO dfs.FSNamesystem: BLOCK* NameSystem.delete: blk_-2511486179633322869 is added to invalidSet of 10.251.66.102:50010
081111 110425 26 INFO dfs.FSNamesystem: BLOCK* NameSystem.delete: blk_-2511486179633322869 is added to invalidSet of 10.251.67.211:50010
081111 110429 26 INFO dfs.FSNamesystem: BLOCK* NameSystem.delete: blk_1740025246370507671 is added to invalidSet of 10.251.214.225:50010
081111 110429 26 INFO dfs.FSNamesystem: BLOCK* NameSystem.delete: blk_1740025246370507671 is added to invalidSet of 10.251.215.16:50010
081111 110429 26 INFO dfs.FSNamesystem: BLOCK* NameSystem.delete: blk_1740025246370507671 is added to invalidSet of 10.251.215.70:50010
081111 110432 26 INFO dfs.FSNamesystem: BLOCK* NameSystem.delete: blk_7580158928547317691 is added to invalidSet of 10.250.7.230:50010
081111 110432 26 INFO dfs.FSNamesystem: BLOCK* NameSystem.delete: blk_7580158928547317691 is added to invalidSet of 10.251.123.33:50010
081111 110432 26 INFO dfs.FSNamesystem: BLOCK* NameSystem.delete: blk_7580158928547317691 is added to invalidSet of 10.251.43.147:50010
081111 110434 26 INFO dfs.FSNamesystem: BLOCK* NameSystem.delete: blk_7741499173520363205 is added to invalidSet of 10.250.10.223:50010
081111 110434 26 INFO dfs.FSNamesystem: BLOCK* NameSystem.delete: blk_7741499173520363205 is added to invalidSet of 10.251.110.68:50010
081111 110434 26 INFO dfs.FSNamesystem: BLOCK* NameSystem.delete: blk_7741499173520363205 is added to invalidSet of 10.251.202.181:50010
081111 110435 26 INFO dfs.FSNamesystem: BLOCK* NameSystem.delete: blk_1686014489111679521 is added to invalidSet of 10.250.14.224:50010
081111 110435 26 INFO dfs.FSNamesystem: BLOCK* NameSystem.delete: blk_1686014489111679521 is added to invalidSet of 10.250.6.4:50010
081111 110435 26 INFO dfs.FSNamesystem: BLOCK* NameSystem.delete: blk_1686014489111679521 is added to invalidSet of 10.251.202.134:50010
081111 110438 26 INFO dfs.FSNamesystem: BLOCK* NameSystem.delete: blk_4299514267779890807 is added to invalidSet of 10.251.203.129:50010
081111 110438 26 INFO dfs.FSNamesystem: BLOCK* NameSystem.delete: blk_4299514267779890807 is added to invalidSet of 10.251.43.115:50010
081111 110438 26 INFO dfs.FSNamesystem: BLOCK* NameSystem.delete: blk_4299514267779890807 is added to invalidSet of 10.251.71.240:50010
081111 110439 26 INFO dfs.FSNamesystem: BLOCK* NameSystem.delete: blk_5551394867069625048 is added to invalidSet of 10.250.10.6:50010
081111 110439 26 INFO dfs.FSNamesystem: BLOCK* NameSystem.delete: blk_5551394867069625048 is added to invalidSet of 10.251.110.68:50010
081111 110439 26 INFO dfs.FSNamesystem: BLOCK* NameSystem.delete: blk_5551394867069625048 is added to invalidSet of 10.251.66.3:50010
081111 110440 26 INFO dfs.FSNamesystem: BLOCK* NameSystem.delete: blk_3862581703853133073 is added to invalidSet of 10.251.107.196:50010
081111 110440 26 INFO dfs.FSNamesystem: BLOCK* NameSystem.delete: blk_3862581703853133073 is added to invalidSet of 10.251.66.192:50010
081111 110440 26 INFO dfs.FSNamesystem: BLOCK* NameSystem.delete: blk_3862581703853133073 is added to invalidSet of 10.251.90.81:50010
081111 110441 26 INFO dfs.FSNamesystem: BLOCK* NameSystem.delete: blk_-4748113038461927264 is added to invalidSet of 10.251.202.209:50010
081111 110441 26 INFO dfs.FSNamesystem: BLOCK* NameSystem.delete: blk_-4748113038461927264 is added to invalidSet of 10.251.70.112:50010
081111 110441 26 INFO dfs.FSNamesystem: BLOCK* NameSystem.delete: blk_-4748113038461927264 is added to invalidSet of 10.251.70.37:50010
081111 110443 26 INFO dfs.FSNamesystem: BLOCK* NameSystem.delete: blk_-4387382232011504138 is added to invalidSet of 10.251.203.80:50010
081111 110443 26 INFO dfs.FSNamesystem: BLOCK* NameSystem.delete: blk_-4387382232011504138 is added to invalidSet of 10.251.39.242:50010
081111 110443 26 INFO dfs.FSNamesystem: BLOCK* NameSystem.delete: blk_-4387382232011504138 is added to invalidSet of 10.251.91.15:50010
081111 110446 26 INFO dfs.FSNamesystem: BLOCK* NameSystem.delete: blk_-4422008639067555175 is added to invalidSet of 10.251.31.160:50010
081111 110446 26 INFO dfs.FSNamesystem: BLOCK* NameSystem.delete: blk_-4422008639067555175 is added to invalidSet of 10.251.66.63:50010
081111 110446 26 INFO dfs.FSNamesystem: BLOCK* NameSystem.delete: blk_-4422008639067555175 is added to invalidSet of 10.251.75.228:50010
081111 110448 26 INFO dfs.FSNamesystem: BLOCK* NameSystem.delete: blk_-4018519499827896254 is added to invalidSet of 10.250.13.240:50010
081111 110448 26 INFO dfs.FSNamesystem: BLOCK* NameSystem.delete: blk_-4018519499827896254 is added to invalidSet of 10.251.29.239:50010
081111 110448 26 INFO dfs.FSNamesystem: BLOCK* NameSystem.delete: blk_-4018519499827896254 is added to invalidSet of 10.251.42.246:50010
081111 110503 19 INFO dfs.FSDataset: Deleting block blk_1740025246370507671 file /mnt/hadoop/dfs/data/current/subdir25/blk_1740025246370507671
081111 110507 19 INFO dfs.FSDataset: Deleting block blk_-4422008639067555175 file /mnt/hadoop/dfs/data/current/subdir53/blk_-4422008639067555175
081111 110517 18 INFO dfs.FSDataset: Deleting block blk_-4422008639067555175 file /mnt/hadoop/dfs/data/current/subdir31/blk_-4422008639067555175
081111 110522 19 INFO dfs.FSDataset: Deleting block blk_-2511486179633322869 file /mnt/hadoop/dfs/data/current/subdir45/blk_-2511486179633322869
081111 110526 19 INFO dfs.FSDataset: Deleting block blk_-4018519499827896254 file /mnt/hadoop/dfs/data/current/subdir57/blk_-4018519499827896254
081111 110527 19 INFO dfs.FSDataset: Deleting block blk_-4387382232011504138 file /mnt/hadoop/dfs/data/current/subdir2/blk_-4387382232011504138
081111 110530 19 INFO dfs.FSDataset: Deleting block blk_-4018519499827896254 file /mnt/hadoop/dfs/data/current/subdir5/blk_-4018519499827896254
081111 110530 19 INFO dfs.FSDataset: Deleting block blk_4299514267779890807 file /mnt/hadoop/dfs/data/current/subdir53/blk_4299514267779890807
081111 110533 19 INFO dfs.FSDataset: Deleting block blk_-4387382232011504138 file /mnt/hadoop/dfs/data/current/subdir23/blk_-4387382232011504138
081111 110538 18 INFO dfs.FSDataset: Deleting block blk_-4422008639067555175 file /mnt/hadoop/dfs/data/current/subdir62/blk_-4422008639067555175
081111 110538 18 INFO dfs.FSDataset: Deleting block blk_-4748113038461927264 file /mnt/hadoop/dfs/data/current/subdir13/blk_-4748113038461927264
081111 110541 19 INFO dfs.FSDataset: Deleting block blk_1686014489111679521 file /mnt/hadoop/dfs/data/current/subdir52/blk_1686014489111679521
081111 110542 19 INFO dfs.FSDataset: Deleting block blk_-2511486179633322869 file /mnt/hadoop/dfs/data/current/subdir18/blk_-2511486179633322869
081111 110543 19 INFO dfs.FSDataset: Deleting block blk_-4018519499827896254 file /mnt/hadoop/dfs/data/current/subdir40/blk_-4018519499827896254
081111 110544 19 INFO dfs.FSDataset: Deleting block blk_-4748113038461927264 file /mnt/hadoop/dfs/data/current/subdir45/blk_-4748113038461927264
081111 110548 18 INFO dfs.FSDataset: Deleting block blk_7580158928547317691 file /mnt/hadoop/dfs/data/current/subdir59/blk_7580158928547317691
081111 110551 19 INFO dfs.FSDataset: Deleting block blk_3862581703853133073 file /mnt/hadoop/dfs/data/current/subdir9/blk_3862581703853133073
081111 110552 19 INFO dfs.FSDataset: Deleting block blk_1740025246370507671 file /mnt/hadoop/dfs/data/current/subdir3/blk_1740025246370507671
081111 110552 19 INFO dfs.FSDataset: Deleting block blk_-2511486179633322869 file /mnt/hadoop/dfs/data/current/subdir62/blk_-2511486179633322869
081111 110552 19 INFO dfs.FSDataset: Deleting block blk_-4748113038461927264 file /mnt/hadoop/dfs/data/current/subdir42/blk_-4748113038461927264
081111 110553 19 INFO dfs.FSDataset: Deleting block blk_3862581703853133073 file /mnt/hadoop/dfs/data/current/subdir56/blk_3862581703853133073
081111 110554 19 INFO dfs.FSDataset: Deleting block blk_-4387382232011504138 file /mnt/hadoop/dfs/data/current/subdir4/blk_-4387382232011504138
081111 110556 19 INFO dfs.FSDataset: Deleting block blk_5551394867069625048 file /mnt/hadoop/dfs/data/current/subdir29/blk_5551394867069625048
081111 110556 19 INFO dfs.FSDataset: Deleting block blk_7741499173520363205 file /mnt/hadoop/dfs/data/current/subdir37/blk_7741499173520363205
081111 110601 19 INFO dfs.FSDataset: Deleting block blk_1686014489111679521 file /mnt/hadoop/dfs/data/current/subdir45/blk_1686014489111679521
081111 110601 19 INFO dfs.FSDataset: Deleting block blk_7580158928547317691 file /mnt/hadoop/dfs/data/current/subdir5/blk_7580158928547317691
081111 110602 19 INFO dfs.FSDataset: Deleting block blk_1740025246370507671 file /mnt/hadoop/dfs/data/current/subdir6/blk_1740025246370507671
081111 110603 19 INFO dfs.FSDataset: Deleting block blk_4299514267779890807 file /mnt/hadoop/dfs/data/current/subdir55/blk_4299514267779890807
081111 110603 19 INFO dfs.FSDataset: Deleting block blk_7741499173520363205 file /mnt/hadoop/dfs/data/current/subdir27/blk_7741499173520363205
081111 110609 19 INFO dfs.FSDataset: Deleting block blk_4299514267779890807 file /mnt/hadoop/dfs/data/current/subdir36/blk_4299514267779890807
081111 110611 19 INFO dfs.FSDataset: Deleting block blk_5551394867069625048 file /mnt/hadoop/dfs/data/current/subdir57/blk_5551394867069625048
081111 110613 19 INFO dfs.FSDataset: Deleting block blk_3862581703853133073 file /mnt/hadoop/dfs/data/current/subdir4/blk_3862581703853133073
081111 110618 19 INFO dfs.FSDataset: Deleting block blk_1686014489111679521 file /mnt/hadoop/dfs/data/current/subdir55/blk_1686014489111679521
081111 110619 19 INFO dfs.FSDataset: Deleting block blk_7580158928547317691 file /mnt/hadoop/dfs/data/current/subdir54/blk_7580158928547317691
081111 110624 19 INFO dfs.FSDataset: Deleting block blk_7741499173520363205 file /mnt/hadoop/dfs/data/current/subdir39/blk_7741499173520363205
081111 110647 19 INFO dfs.FSDataset: Deleting block blk_5551394867069625048 file /mnt/hadoop/dfs/data/current/subdir33/blk_5551394867069625048
